
mlp_iris_dylib:     file format elf64-littleriscv


Disassembly of section .text:

00000000000100b0 <__cxa_bad_cast>:
   100b0:	1141                	c.addi	x2,-16
   100b2:	4521                	c.li	x10,8
   100b4:	e406                	c.sdsp	x1,8(x2)
   100b6:	61f030ef          	jal	x1,13ed4 <__cxa_allocate_exception>
   100ba:	0002a7b7          	lui	x15,0x2a
   100be:	83078793          	addi	x15,x15,-2000 # 29830 <_ZTVSt8bad_cast+0x10>
   100c2:	6651                	c.lui	x12,0x14
   100c4:	0002a5b7          	lui	x11,0x2a
   100c8:	e11c                	c.sd	x15,0(x10)
   100ca:	d9060613          	addi	x12,x12,-624 # 13d90 <_ZNSt8bad_castD1Ev>
   100ce:	80858593          	addi	x11,x11,-2040 # 29808 <_ZTISt8bad_cast>
   100d2:	407030ef          	jal	x1,13cd8 <__cxa_throw>

00000000000100d6 <__cxa_bad_typeid>:
   100d6:	1141                	c.addi	x2,-16
   100d8:	4521                	c.li	x10,8
   100da:	e406                	c.sdsp	x1,8(x2)
   100dc:	5f9030ef          	jal	x1,13ed4 <__cxa_allocate_exception>
   100e0:	0002a7b7          	lui	x15,0x2a
   100e4:	89078793          	addi	x15,x15,-1904 # 29890 <_ZTVSt10bad_typeid+0x10>
   100e8:	6651                	c.lui	x12,0x14
   100ea:	0002a5b7          	lui	x11,0x2a
   100ee:	e11c                	c.sd	x15,0(x10)
   100f0:	dbe60613          	addi	x12,x12,-578 # 13dbe <_ZNSt10bad_typeidD1Ev>
   100f4:	86858593          	addi	x11,x11,-1944 # 29868 <_ZTISt10bad_typeid>
   100f8:	3e1030ef          	jal	x1,13cd8 <__cxa_throw>

00000000000100fc <__cxa_throw_bad_array_new_length>:
   100fc:	1141                	c.addi	x2,-16
   100fe:	4521                	c.li	x10,8
   10100:	e406                	c.sdsp	x1,8(x2)
   10102:	5d3030ef          	jal	x1,13ed4 <__cxa_allocate_exception>
   10106:	000297b7          	lui	x15,0x29
   1010a:	7d078793          	addi	x15,x15,2000 # 297d0 <_ZTVSt20bad_array_new_length+0x10>
   1010e:	6651                	c.lui	x12,0x14
   10110:	000295b7          	lui	x11,0x29
   10114:	e11c                	c.sd	x15,0(x10)
   10116:	d6060613          	addi	x12,x12,-672 # 13d60 <_ZNSt20bad_array_new_lengthD1Ev>
   1011a:	7a858593          	addi	x11,x11,1960 # 297a8 <_ZTISt20bad_array_new_length>
   1011e:	3bb030ef          	jal	x1,13cd8 <__cxa_throw>

0000000000010122 <_GLOBAL__sub_I__ZN9__gnu_cxx9__freeresEv>:
   10122:	1101                	c.addi	x2,-32
   10124:	e426                	c.sdsp	x9,8(x2)
   10126:	6485                	c.lui	x9,0x1
   10128:	e822                	c.sdsp	x8,16(x2)
   1012a:	1c048493          	addi	x9,x9,448 # 11c0 <__cxa_bad_cast-0xeef0>
   1012e:	76018413          	addi	x8,x3,1888 # 306d0 <_ZN12_GLOBAL__N_114emergency_poolE>
   10132:	8526                	c.mv	x10,x9
   10134:	ec06                	c.sdsp	x1,24(x2)
   10136:	ec04                	c.sd	x9,24(x8)
   10138:	6f70b0ef          	jal	x1,1c02e <malloc>
   1013c:	e808                	c.sd	x10,16(x8)
   1013e:	e911                	c.bnez	x10,10152 <_GLOBAL__sub_I__ZN9__gnu_cxx9__freeresEv+0x30>
   10140:	00043c23          	sd	x0,24(x8)
   10144:	00043423          	sd	x0,8(x8)
   10148:	60e2                	c.ldsp	x1,24(x2)
   1014a:	6442                	c.ldsp	x8,16(x2)
   1014c:	64a2                	c.ldsp	x9,8(x2)
   1014e:	6105                	c.addi16sp	x2,32
   10150:	8082                	c.jr	x1
   10152:	e408                	c.sd	x10,8(x8)
   10154:	e104                	c.sd	x9,0(x10)
   10156:	00053423          	sd	x0,8(x10)
   1015a:	b7fd                	c.j	10148 <_GLOBAL__sub_I__ZN9__gnu_cxx9__freeresEv+0x26>

000000000001015c <register_fini>:
   1015c:	00000793          	addi	x15,x0,0
   10160:	c799                	c.beqz	x15,1016e <register_fini+0x12>
   10162:	00022537          	lui	x10,0x22
   10166:	13e50513          	addi	x10,x10,318 # 2213e <__libc_fini_array>
   1016a:	31b1106f          	jal	x0,21c84 <atexit>
   1016e:	8082                	c.jr	x1

0000000000010170 <_start>:
   10170:	00020197          	auipc	x3,0x20
   10174:	e0018193          	addi	x3,x3,-512 # 2ff70 <__global_pointer$>
   10178:	6d018513          	addi	x10,x3,1744 # 30640 <_ZZN9__gnu_cxx27__verbose_terminate_handlerEvE11terminating>
   1017c:	00020617          	auipc	x12,0x20
   10180:	5f460613          	addi	x12,x12,1524 # 30770 <__BSS_END__>
   10184:	8e09                	c.sub	x12,x10
   10186:	4581                	c.li	x11,0
   10188:	76a0c0ef          	jal	x1,1c8f2 <memset>
   1018c:	00012517          	auipc	x10,0x12
   10190:	af850513          	addi	x10,x10,-1288 # 21c84 <atexit>
   10194:	c519                	c.beqz	x10,101a2 <_start+0x32>
   10196:	00012517          	auipc	x10,0x12
   1019a:	fa850513          	addi	x10,x10,-88 # 2213e <__libc_fini_array>
   1019e:	2e7110ef          	jal	x1,21c84 <atexit>
   101a2:	61b0b0ef          	jal	x1,1bfbc <__libc_init_array>
   101a6:	4502                	c.lwsp	x10,0(x2)
   101a8:	002c                	c.addi4spn	x11,x2,8
   101aa:	4601                	c.li	x12,0
   101ac:	0fb030ef          	jal	x1,13aa6 <main>
   101b0:	1930b06f          	jal	x0,1bb42 <exit>

00000000000101b4 <__do_global_dtors_aux>:
   101b4:	1141                	c.addi	x2,-16
   101b6:	e022                	c.sdsp	x8,0(x2)
   101b8:	7281c783          	lbu	x15,1832(x3) # 30698 <completed.1>
   101bc:	e406                	c.sdsp	x1,8(x2)
   101be:	ef91                	c.bnez	x15,101da <__do_global_dtors_aux+0x26>
   101c0:	67f1                	c.lui	x15,0x1c
   101c2:	9fc78793          	addi	x15,x15,-1540 # 1b9fc <__deregister_frame_info>
   101c6:	c799                	c.beqz	x15,101d4 <__do_global_dtors_aux+0x20>
   101c8:	0002d537          	lui	x10,0x2d
   101cc:	00050513          	addi	x10,x10,0 # 2d000 <__EH_FRAME_BEGIN__>
   101d0:	02d0b0ef          	jal	x1,1b9fc <__deregister_frame_info>
   101d4:	4785                	c.li	x15,1
   101d6:	72f18423          	sb	x15,1832(x3) # 30698 <completed.1>
   101da:	60a2                	c.ldsp	x1,8(x2)
   101dc:	6402                	c.ldsp	x8,0(x2)
   101de:	0141                	c.addi	x2,16
   101e0:	8082                	c.jr	x1

00000000000101e2 <frame_dummy>:
   101e2:	67f1                	c.lui	x15,0x1c
   101e4:	92678793          	addi	x15,x15,-1754 # 1b926 <__register_frame_info>
   101e8:	cb89                	c.beqz	x15,101fa <frame_dummy+0x18>
   101ea:	0002d537          	lui	x10,0x2d
   101ee:	73018593          	addi	x11,x3,1840 # 306a0 <object.0>
   101f2:	00050513          	addi	x10,x10,0 # 2d000 <__EH_FRAME_BEGIN__>
   101f6:	7300b06f          	jal	x0,1b926 <__register_frame_info>
   101fa:	8082                	c.jr	x1

00000000000101fc <_ZL11read_cyclesv>:
   101fc:	1101                	c.addi	x2,-32
   101fe:	ec22                	c.sdsp	x8,24(x2)
   10200:	1000                	c.addi4spn	x8,x2,32
   10202:	c00027f3          	csrrs	x15,cycle,x0
   10206:	fef43423          	sd	x15,-24(x8)
   1020a:	fe843783          	ld	x15,-24(x8)
   1020e:	853e                	c.mv	x10,x15
   10210:	6462                	c.ldsp	x8,24(x2)
   10212:	6105                	c.addi16sp	x2,32
   10214:	8082                	c.jr	x1

0000000000010216 <_Z9print_sepv>:
   10216:	1141                	c.addi	x2,-16
   10218:	e406                	c.sdsp	x1,8(x2)
   1021a:	e022                	c.sdsp	x8,0(x2)
   1021c:	0800                	c.addi4spn	x8,x2,16
   1021e:	000287b7          	lui	x15,0x28
   10222:	00078513          	addi	x10,x15,0 # 28000 <__clzdi2+0x3e>
   10226:	1150c0ef          	jal	x1,1cb3a <puts>
   1022a:	0001                	c.addi	x0,0
   1022c:	60a2                	c.ldsp	x1,8(x2)
   1022e:	6402                	c.ldsp	x8,0(x2)
   10230:	0141                	c.addi	x2,16
   10232:	8082                	c.jr	x1

0000000000010234 <_Z9print_vecPKsm>:
   10234:	7179                	c.addi16sp	x2,-48
   10236:	f406                	c.sdsp	x1,40(x2)
   10238:	f022                	c.sdsp	x8,32(x2)
   1023a:	1800                	c.addi4spn	x8,x2,48
   1023c:	fca43c23          	sd	x10,-40(x8)
   10240:	fcb43823          	sd	x11,-48(x8)
   10244:	000287b7          	lui	x15,0x28
   10248:	03078513          	addi	x10,x15,48 # 28030 <__clzdi2+0x6e>
   1024c:	7760c0ef          	jal	x1,1c9c2 <printf>
   10250:	fe042623          	sw	x0,-20(x8)
   10254:	a035                	c.j	10280 <_Z9print_vecPKsm+0x4c>
   10256:	fec42783          	lw	x15,-20(x8)
   1025a:	0786                	c.slli	x15,0x1
   1025c:	fd843703          	ld	x14,-40(x8)
   10260:	97ba                	c.add	x15,x14
   10262:	00079783          	lh	x15,0(x15)
   10266:	2781                	c.addiw	x15,0
   10268:	85be                	c.mv	x11,x15
   1026a:	000287b7          	lui	x15,0x28
   1026e:	03878513          	addi	x10,x15,56 # 28038 <__clzdi2+0x76>
   10272:	7500c0ef          	jal	x1,1c9c2 <printf>
   10276:	fec42783          	lw	x15,-20(x8)
   1027a:	2785                	c.addiw	x15,1
   1027c:	fef42623          	sw	x15,-20(x8)
   10280:	fec42703          	lw	x14,-20(x8)
   10284:	fd043783          	ld	x15,-48(x8)
   10288:	17fd                	c.addi	x15,-1
   1028a:	fcf766e3          	bltu	x14,x15,10256 <_Z9print_vecPKsm+0x22>
   1028e:	fd043783          	ld	x15,-48(x8)
   10292:	0786                	c.slli	x15,0x1
   10294:	17f9                	c.addi	x15,-2
   10296:	fd843703          	ld	x14,-40(x8)
   1029a:	97ba                	c.add	x15,x14
   1029c:	00079783          	lh	x15,0(x15)
   102a0:	2781                	c.addiw	x15,0
   102a2:	85be                	c.mv	x11,x15
   102a4:	000287b7          	lui	x15,0x28
   102a8:	04078513          	addi	x10,x15,64 # 28040 <__clzdi2+0x7e>
   102ac:	7160c0ef          	jal	x1,1c9c2 <printf>
   102b0:	0001                	c.addi	x0,0
   102b2:	70a2                	c.ldsp	x1,40(x2)
   102b4:	7402                	c.ldsp	x8,32(x2)
   102b6:	6145                	c.addi16sp	x2,48
   102b8:	8082                	c.jr	x1

00000000000102ba <_Z9print_matPKsmm>:
   102ba:	7139                	c.addi16sp	x2,-64
   102bc:	fc06                	c.sdsp	x1,56(x2)
   102be:	f822                	c.sdsp	x8,48(x2)
   102c0:	0080                	c.addi4spn	x8,x2,64
   102c2:	fca43c23          	sd	x10,-40(x8)
   102c6:	fcb43823          	sd	x11,-48(x8)
   102ca:	fcc43423          	sd	x12,-56(x8)
   102ce:	fe042623          	sw	x0,-20(x8)
   102d2:	a075                	c.j	1037e <_Z9print_matPKsmm+0xc4>
   102d4:	000287b7          	lui	x15,0x28
   102d8:	03078513          	addi	x10,x15,48 # 28030 <__clzdi2+0x6e>
   102dc:	6e60c0ef          	jal	x1,1c9c2 <printf>
   102e0:	fe042423          	sw	x0,-24(x8)
   102e4:	a82d                	c.j	1031e <_Z9print_matPKsmm+0x64>
   102e6:	fec42703          	lw	x14,-20(x8)
   102ea:	fc843783          	ld	x15,-56(x8)
   102ee:	02f70733          	mul	x14,x14,x15
   102f2:	fe842783          	lw	x15,-24(x8)
   102f6:	97ba                	c.add	x15,x14
   102f8:	0786                	c.slli	x15,0x1
   102fa:	fd843703          	ld	x14,-40(x8)
   102fe:	97ba                	c.add	x15,x14
   10300:	00079783          	lh	x15,0(x15)
   10304:	2781                	c.addiw	x15,0
   10306:	85be                	c.mv	x11,x15
   10308:	000287b7          	lui	x15,0x28
   1030c:	03878513          	addi	x10,x15,56 # 28038 <__clzdi2+0x76>
   10310:	6b20c0ef          	jal	x1,1c9c2 <printf>
   10314:	fe842783          	lw	x15,-24(x8)
   10318:	2785                	c.addiw	x15,1
   1031a:	fef42423          	sw	x15,-24(x8)
   1031e:	fe842703          	lw	x14,-24(x8)
   10322:	fc843783          	ld	x15,-56(x8)
   10326:	17fd                	c.addi	x15,-1
   10328:	faf76fe3          	bltu	x14,x15,102e6 <_Z9print_matPKsmm+0x2c>
   1032c:	fec42703          	lw	x14,-20(x8)
   10330:	fd043783          	ld	x15,-48(x8)
   10334:	17fd                	c.addi	x15,-1
   10336:	00f71763          	bne	x14,x15,10344 <_Z9print_matPKsmm+0x8a>
   1033a:	000287b7          	lui	x15,0x28
   1033e:	04878793          	addi	x15,x15,72 # 28048 <__clzdi2+0x86>
   10342:	a029                	c.j	1034c <_Z9print_matPKsmm+0x92>
   10344:	000287b7          	lui	x15,0x28
   10348:	05078793          	addi	x15,x15,80 # 28050 <__clzdi2+0x8e>
   1034c:	fec42703          	lw	x14,-20(x8)
   10350:	00170693          	addi	x13,x14,1
   10354:	fc843703          	ld	x14,-56(x8)
   10358:	02e68733          	mul	x14,x13,x14
   1035c:	0706                	c.slli	x14,0x1
   1035e:	1779                	c.addi	x14,-2
   10360:	fd843683          	ld	x13,-40(x8)
   10364:	9736                	c.add	x14,x13
   10366:	00071703          	lh	x14,0(x14)
   1036a:	2701                	c.addiw	x14,0
   1036c:	85ba                	c.mv	x11,x14
   1036e:	853e                	c.mv	x10,x15
   10370:	6520c0ef          	jal	x1,1c9c2 <printf>
   10374:	fec42783          	lw	x15,-20(x8)
   10378:	2785                	c.addiw	x15,1
   1037a:	fef42623          	sw	x15,-20(x8)
   1037e:	fec42783          	lw	x15,-20(x8)
   10382:	fd043703          	ld	x14,-48(x8)
   10386:	f4e7e7e3          	bltu	x15,x14,102d4 <_Z9print_matPKsmm+0x1a>
   1038a:	0001                	c.addi	x0,0
   1038c:	0001                	c.addi	x0,0
   1038e:	70e2                	c.ldsp	x1,56(x2)
   10390:	7442                	c.ldsp	x8,48(x2)
   10392:	6121                	c.addi16sp	x2,64
   10394:	8082                	c.jr	x1

0000000000010396 <_Z9print_matPKsmmm>:
   10396:	7139                	c.addi16sp	x2,-64
   10398:	fc06                	c.sdsp	x1,56(x2)
   1039a:	f822                	c.sdsp	x8,48(x2)
   1039c:	0080                	c.addi4spn	x8,x2,64
   1039e:	fca43c23          	sd	x10,-40(x8)
   103a2:	fcb43823          	sd	x11,-48(x8)
   103a6:	fcc43423          	sd	x12,-56(x8)
   103aa:	fcd43023          	sd	x13,-64(x8)
   103ae:	fd043703          	ld	x14,-48(x8)
   103b2:	fc843783          	ld	x15,-56(x8)
   103b6:	02f707b3          	mul	x15,x14,x15
   103ba:	fef43023          	sd	x15,-32(x8)
   103be:	fe042623          	sw	x0,-20(x8)
   103c2:	a085                	c.j	10422 <_Z9print_matPKsmmm+0x8c>
   103c4:	000287b7          	lui	x15,0x28
   103c8:	03078513          	addi	x10,x15,48 # 28030 <__clzdi2+0x6e>
   103cc:	5f60c0ef          	jal	x1,1c9c2 <printf>
   103d0:	fec42703          	lw	x14,-20(x8)
   103d4:	fe043783          	ld	x15,-32(x8)
   103d8:	02f707b3          	mul	x15,x14,x15
   103dc:	0786                	c.slli	x15,0x1
   103de:	fd843703          	ld	x14,-40(x8)
   103e2:	97ba                	c.add	x15,x14
   103e4:	fc843603          	ld	x12,-56(x8)
   103e8:	fd043583          	ld	x11,-48(x8)
   103ec:	853e                	c.mv	x10,x15
   103ee:	ecdff0ef          	jal	x1,102ba <_Z9print_matPKsmm>
   103f2:	fec42703          	lw	x14,-20(x8)
   103f6:	fc043783          	ld	x15,-64(x8)
   103fa:	17fd                	c.addi	x15,-1
   103fc:	00f71763          	bne	x14,x15,1040a <_Z9print_matPKsmmm+0x74>
   10400:	000287b7          	lui	x15,0x28
   10404:	05878793          	addi	x15,x15,88 # 28058 <__clzdi2+0x96>
   10408:	a029                	c.j	10412 <_Z9print_matPKsmmm+0x7c>
   1040a:	000287b7          	lui	x15,0x28
   1040e:	06078793          	addi	x15,x15,96 # 28060 <__clzdi2+0x9e>
   10412:	853e                	c.mv	x10,x15
   10414:	5ae0c0ef          	jal	x1,1c9c2 <printf>
   10418:	fec42783          	lw	x15,-20(x8)
   1041c:	2785                	c.addiw	x15,1
   1041e:	fef42623          	sw	x15,-20(x8)
   10422:	fec42783          	lw	x15,-20(x8)
   10426:	fc043703          	ld	x14,-64(x8)
   1042a:	f8e7ede3          	bltu	x15,x14,103c4 <_Z9print_matPKsmmm+0x2e>
   1042e:	0001                	c.addi	x0,0
   10430:	0001                	c.addi	x0,0
   10432:	70e2                	c.ldsp	x1,56(x2)
   10434:	7442                	c.ldsp	x8,48(x2)
   10436:	6121                	c.addi16sp	x2,64
   10438:	8082                	c.jr	x1

000000000001043a <_Z9print_matPKsmmmm>:
   1043a:	715d                	c.addi16sp	x2,-80
   1043c:	e486                	c.sdsp	x1,72(x2)
   1043e:	e0a2                	c.sdsp	x8,64(x2)
   10440:	0880                	c.addi4spn	x8,x2,80
   10442:	fca43c23          	sd	x10,-40(x8)
   10446:	fcb43823          	sd	x11,-48(x8)
   1044a:	fcc43423          	sd	x12,-56(x8)
   1044e:	fcd43023          	sd	x13,-64(x8)
   10452:	fae43c23          	sd	x14,-72(x8)
   10456:	fd043703          	ld	x14,-48(x8)
   1045a:	fc843783          	ld	x15,-56(x8)
   1045e:	02f707b3          	mul	x15,x14,x15
   10462:	fc043703          	ld	x14,-64(x8)
   10466:	02f707b3          	mul	x15,x14,x15
   1046a:	fef43023          	sd	x15,-32(x8)
   1046e:	fe042623          	sw	x0,-20(x8)
   10472:	a095                	c.j	104d6 <_Z9print_matPKsmmmm+0x9c>
   10474:	000287b7          	lui	x15,0x28
   10478:	06878513          	addi	x10,x15,104 # 28068 <__clzdi2+0xa6>
   1047c:	6be0c0ef          	jal	x1,1cb3a <puts>
   10480:	fec42703          	lw	x14,-20(x8)
   10484:	fe043783          	ld	x15,-32(x8)
   10488:	02f707b3          	mul	x15,x14,x15
   1048c:	0786                	c.slli	x15,0x1
   1048e:	fd843703          	ld	x14,-40(x8)
   10492:	97ba                	c.add	x15,x14
   10494:	fc043683          	ld	x13,-64(x8)
   10498:	fc843603          	ld	x12,-56(x8)
   1049c:	fd043583          	ld	x11,-48(x8)
   104a0:	853e                	c.mv	x10,x15
   104a2:	ef5ff0ef          	jal	x1,10396 <_Z9print_matPKsmmm>
   104a6:	fec42703          	lw	x14,-20(x8)
   104aa:	fb843783          	ld	x15,-72(x8)
   104ae:	17fd                	c.addi	x15,-1
   104b0:	00f71763          	bne	x14,x15,104be <_Z9print_matPKsmmmm+0x84>
   104b4:	000287b7          	lui	x15,0x28
   104b8:	05878793          	addi	x15,x15,88 # 28058 <__clzdi2+0x96>
   104bc:	a029                	c.j	104c6 <_Z9print_matPKsmmmm+0x8c>
   104be:	000287b7          	lui	x15,0x28
   104c2:	06078793          	addi	x15,x15,96 # 28060 <__clzdi2+0x9e>
   104c6:	853e                	c.mv	x10,x15
   104c8:	4fa0c0ef          	jal	x1,1c9c2 <printf>
   104cc:	fec42783          	lw	x15,-20(x8)
   104d0:	2785                	c.addiw	x15,1
   104d2:	fef42623          	sw	x15,-20(x8)
   104d6:	fec42783          	lw	x15,-20(x8)
   104da:	fb843703          	ld	x14,-72(x8)
   104de:	f8e7ebe3          	bltu	x15,x14,10474 <_Z9print_matPKsmmmm+0x3a>
   104e2:	0001                	c.addi	x0,0
   104e4:	0001                	c.addi	x0,0
   104e6:	60a6                	c.ldsp	x1,72(x2)
   104e8:	6406                	c.ldsp	x8,64(x2)
   104ea:	6161                	c.addi16sp	x2,80
   104ec:	8082                	c.jr	x1

00000000000104ee <_Z10array_initPsms>:
   104ee:	7139                	c.addi16sp	x2,-64
   104f0:	fc22                	c.sdsp	x8,56(x2)
   104f2:	0080                	c.addi4spn	x8,x2,64
   104f4:	fca43c23          	sd	x10,-40(x8)
   104f8:	fcb43823          	sd	x11,-48(x8)
   104fc:	87b2                	c.mv	x15,x12
   104fe:	fcf41723          	sh	x15,-50(x8)
   10502:	fe043423          	sd	x0,-24(x8)
   10506:	a005                	c.j	10526 <_Z10array_initPsms+0x38>
   10508:	fe843783          	ld	x15,-24(x8)
   1050c:	0786                	c.slli	x15,0x1
   1050e:	fd843703          	ld	x14,-40(x8)
   10512:	97ba                	c.add	x15,x14
   10514:	fce45703          	lhu	x14,-50(x8)
   10518:	00e79023          	sh	x14,0(x15)
   1051c:	fe843783          	ld	x15,-24(x8)
   10520:	0785                	c.addi	x15,1
   10522:	fef43423          	sd	x15,-24(x8)
   10526:	fe843703          	ld	x14,-24(x8)
   1052a:	fd043783          	ld	x15,-48(x8)
   1052e:	fcf76de3          	bltu	x14,x15,10508 <_Z10array_initPsms+0x1a>
   10532:	0001                	c.addi	x0,0
   10534:	0001                	c.addi	x0,0
   10536:	7462                	c.ldsp	x8,56(x2)
   10538:	6121                	c.addi16sp	x2,64
   1053a:	8082                	c.jr	x1

000000000001053c <_Z12conv2d_shapePmS_S_mmmmmmmm>:
   1053c:	711d                	c.addi16sp	x2,-96
   1053e:	eca2                	c.sdsp	x8,88(x2)
   10540:	1080                	c.addi4spn	x8,x2,96
   10542:	fca43c23          	sd	x10,-40(x8)
   10546:	fcb43823          	sd	x11,-48(x8)
   1054a:	fcc43423          	sd	x12,-56(x8)
   1054e:	fcd43023          	sd	x13,-64(x8)
   10552:	fae43c23          	sd	x14,-72(x8)
   10556:	faf43823          	sd	x15,-80(x8)
   1055a:	fb043423          	sd	x16,-88(x8)
   1055e:	fb143023          	sd	x17,-96(x8)
   10562:	681c                	c.ld	x15,16(x8)
   10564:	00179713          	slli	x14,x15,0x1
   10568:	fb843783          	ld	x15,-72(x8)
   1056c:	973e                	c.add	x14,x15
   1056e:	601c                	c.ld	x15,0(x8)
   10570:	8f1d                	c.sub	x14,x15
   10572:	641c                	c.ld	x15,8(x8)
   10574:	02f757b3          	divu	x15,x14,x15
   10578:	0785                	c.addi	x15,1
   1057a:	fef43423          	sd	x15,-24(x8)
   1057e:	681c                	c.ld	x15,16(x8)
   10580:	00179713          	slli	x14,x15,0x1
   10584:	fb043783          	ld	x15,-80(x8)
   10588:	973e                	c.add	x14,x15
   1058a:	601c                	c.ld	x15,0(x8)
   1058c:	8f1d                	c.sub	x14,x15
   1058e:	641c                	c.ld	x15,8(x8)
   10590:	02f757b3          	divu	x15,x14,x15
   10594:	0785                	c.addi	x15,1
   10596:	fef43023          	sd	x15,-32(x8)
   1059a:	fc043703          	ld	x14,-64(x8)
   1059e:	fa043783          	ld	x15,-96(x8)
   105a2:	02f70733          	mul	x14,x14,x15
   105a6:	fe843783          	ld	x15,-24(x8)
   105aa:	02f70733          	mul	x14,x14,x15
   105ae:	fe043783          	ld	x15,-32(x8)
   105b2:	02f70733          	mul	x14,x14,x15
   105b6:	fd843783          	ld	x15,-40(x8)
   105ba:	e398                	c.sd	x14,0(x15)
   105bc:	fd043783          	ld	x15,-48(x8)
   105c0:	fe843703          	ld	x14,-24(x8)
   105c4:	e398                	c.sd	x14,0(x15)
   105c6:	fc843783          	ld	x15,-56(x8)
   105ca:	fe043703          	ld	x14,-32(x8)
   105ce:	e398                	c.sd	x14,0(x15)
   105d0:	0001                	c.addi	x0,0
   105d2:	6466                	c.ldsp	x8,88(x2)
   105d4:	6125                	c.addi16sp	x2,96
   105d6:	8082                	c.jr	x1

00000000000105d8 <_Z15padding2d_shapePmS_S_mmmmm>:
   105d8:	715d                	c.addi16sp	x2,-80
   105da:	e4a2                	c.sdsp	x8,72(x2)
   105dc:	0880                	c.addi4spn	x8,x2,80
   105de:	fea43423          	sd	x10,-24(x8)
   105e2:	feb43023          	sd	x11,-32(x8)
   105e6:	fcc43c23          	sd	x12,-40(x8)
   105ea:	fcd43823          	sd	x13,-48(x8)
   105ee:	fce43423          	sd	x14,-56(x8)
   105f2:	fcf43023          	sd	x15,-64(x8)
   105f6:	fb043c23          	sd	x16,-72(x8)
   105fa:	fb143823          	sd	x17,-80(x8)
   105fe:	fd043783          	ld	x15,-48(x8)
   10602:	00179713          	slli	x14,x15,0x1
   10606:	fc843783          	ld	x15,-56(x8)
   1060a:	973e                	c.add	x14,x15
   1060c:	fe043783          	ld	x15,-32(x8)
   10610:	e398                	c.sd	x14,0(x15)
   10612:	fd043783          	ld	x15,-48(x8)
   10616:	00179713          	slli	x14,x15,0x1
   1061a:	fc043783          	ld	x15,-64(x8)
   1061e:	973e                	c.add	x14,x15
   10620:	fd843783          	ld	x15,-40(x8)
   10624:	e398                	c.sd	x14,0(x15)
   10626:	fe043783          	ld	x15,-32(x8)
   1062a:	6398                	c.ld	x14,0(x15)
   1062c:	fd843783          	ld	x15,-40(x8)
   10630:	639c                	c.ld	x15,0(x15)
   10632:	02f70733          	mul	x14,x14,x15
   10636:	fb843783          	ld	x15,-72(x8)
   1063a:	02f70733          	mul	x14,x14,x15
   1063e:	fb043783          	ld	x15,-80(x8)
   10642:	02f70733          	mul	x14,x14,x15
   10646:	fe843783          	ld	x15,-24(x8)
   1064a:	e398                	c.sd	x14,0(x15)
   1064c:	0001                	c.addi	x0,0
   1064e:	6426                	c.ldsp	x8,72(x2)
   10650:	6161                	c.addi16sp	x2,80
   10652:	8082                	c.jr	x1

0000000000010654 <_Z9padding2dPsPKsmsmm>:
   10654:	7119                	c.addi16sp	x2,-128
   10656:	fc86                	c.sdsp	x1,120(x2)
   10658:	f8a2                	c.sdsp	x8,112(x2)
   1065a:	0100                	c.addi4spn	x8,x2,128
   1065c:	faa43423          	sd	x10,-88(x8)
   10660:	fab43023          	sd	x11,-96(x8)
   10664:	f8c43c23          	sd	x12,-104(x8)
   10668:	f8e43423          	sd	x14,-120(x8)
   1066c:	f8f43023          	sd	x15,-128(x8)
   10670:	87b6                	c.mv	x15,x13
   10672:	f8f41b23          	sh	x15,-106(x8)
   10676:	fe043423          	sd	x0,-24(x8)
   1067a:	fe043023          	sd	x0,-32(x8)
   1067e:	f9843783          	ld	x15,-104(x8)
   10682:	00179713          	slli	x14,x15,0x1
   10686:	f8043783          	ld	x15,-128(x8)
   1068a:	97ba                	c.add	x15,x14
   1068c:	f9843703          	ld	x14,-104(x8)
   10690:	02f707b3          	mul	x15,x14,x15
   10694:	faf43823          	sd	x15,-80(x8)
   10698:	fc043c23          	sd	x0,-40(x8)
   1069c:	a01d                	c.j	106c2 <_Z9padding2dPsPKsmsmm+0x6e>
   1069e:	fe843703          	ld	x14,-24(x8)
   106a2:	fd843783          	ld	x15,-40(x8)
   106a6:	97ba                	c.add	x15,x14
   106a8:	0786                	c.slli	x15,0x1
   106aa:	fa843703          	ld	x14,-88(x8)
   106ae:	97ba                	c.add	x15,x14
   106b0:	f9645703          	lhu	x14,-106(x8)
   106b4:	00e79023          	sh	x14,0(x15)
   106b8:	fd843783          	ld	x15,-40(x8)
   106bc:	0785                	c.addi	x15,1
   106be:	fcf43c23          	sd	x15,-40(x8)
   106c2:	fd843703          	ld	x14,-40(x8)
   106c6:	fb043783          	ld	x15,-80(x8)
   106ca:	fcf76ae3          	bltu	x14,x15,1069e <_Z9padding2dPsPKsmsmm+0x4a>
   106ce:	fe843703          	ld	x14,-24(x8)
   106d2:	fb043783          	ld	x15,-80(x8)
   106d6:	97ba                	c.add	x15,x14
   106d8:	fef43423          	sd	x15,-24(x8)
   106dc:	fc043823          	sd	x0,-48(x8)
   106e0:	a8e9                	c.j	107ba <_Z9padding2dPsPKsmsmm+0x166>
   106e2:	fc043423          	sd	x0,-56(x8)
   106e6:	a01d                	c.j	1070c <_Z9padding2dPsPKsmsmm+0xb8>
   106e8:	fe843703          	ld	x14,-24(x8)
   106ec:	fc843783          	ld	x15,-56(x8)
   106f0:	97ba                	c.add	x15,x14
   106f2:	0786                	c.slli	x15,0x1
   106f4:	fa843703          	ld	x14,-88(x8)
   106f8:	97ba                	c.add	x15,x14
   106fa:	f9645703          	lhu	x14,-106(x8)
   106fe:	00e79023          	sh	x14,0(x15)
   10702:	fc843783          	ld	x15,-56(x8)
   10706:	0785                	c.addi	x15,1
   10708:	fcf43423          	sd	x15,-56(x8)
   1070c:	fc843703          	ld	x14,-56(x8)
   10710:	f9843783          	ld	x15,-104(x8)
   10714:	fcf76ae3          	bltu	x14,x15,106e8 <_Z9padding2dPsPKsmsmm+0x94>
   10718:	fe843703          	ld	x14,-24(x8)
   1071c:	f9843783          	ld	x15,-104(x8)
   10720:	97ba                	c.add	x15,x14
   10722:	fef43423          	sd	x15,-24(x8)
   10726:	fe843783          	ld	x15,-24(x8)
   1072a:	0786                	c.slli	x15,0x1
   1072c:	fa843703          	ld	x14,-88(x8)
   10730:	00f706b3          	add	x13,x14,x15
   10734:	fe043783          	ld	x15,-32(x8)
   10738:	0786                	c.slli	x15,0x1
   1073a:	fa043703          	ld	x14,-96(x8)
   1073e:	973e                	c.add	x14,x15
   10740:	f8043783          	ld	x15,-128(x8)
   10744:	0786                	c.slli	x15,0x1
   10746:	863e                	c.mv	x12,x15
   10748:	85ba                	c.mv	x11,x14
   1074a:	8536                	c.mv	x10,x13
   1074c:	7e90b0ef          	jal	x1,1c734 <memcpy>
   10750:	fe843703          	ld	x14,-24(x8)
   10754:	f8043783          	ld	x15,-128(x8)
   10758:	97ba                	c.add	x15,x14
   1075a:	fef43423          	sd	x15,-24(x8)
   1075e:	fe043703          	ld	x14,-32(x8)
   10762:	f8043783          	ld	x15,-128(x8)
   10766:	97ba                	c.add	x15,x14
   10768:	fef43023          	sd	x15,-32(x8)
   1076c:	fc043023          	sd	x0,-64(x8)
   10770:	a01d                	c.j	10796 <_Z9padding2dPsPKsmsmm+0x142>
   10772:	fe843703          	ld	x14,-24(x8)
   10776:	fc043783          	ld	x15,-64(x8)
   1077a:	97ba                	c.add	x15,x14
   1077c:	0786                	c.slli	x15,0x1
   1077e:	fa843703          	ld	x14,-88(x8)
   10782:	97ba                	c.add	x15,x14
   10784:	f9645703          	lhu	x14,-106(x8)
   10788:	00e79023          	sh	x14,0(x15)
   1078c:	fc043783          	ld	x15,-64(x8)
   10790:	0785                	c.addi	x15,1
   10792:	fcf43023          	sd	x15,-64(x8)
   10796:	fc043703          	ld	x14,-64(x8)
   1079a:	f9843783          	ld	x15,-104(x8)
   1079e:	fcf76ae3          	bltu	x14,x15,10772 <_Z9padding2dPsPKsmsmm+0x11e>
   107a2:	fe843703          	ld	x14,-24(x8)
   107a6:	f9843783          	ld	x15,-104(x8)
   107aa:	97ba                	c.add	x15,x14
   107ac:	fef43423          	sd	x15,-24(x8)
   107b0:	fd043783          	ld	x15,-48(x8)
   107b4:	0785                	c.addi	x15,1
   107b6:	fcf43823          	sd	x15,-48(x8)
   107ba:	fd043703          	ld	x14,-48(x8)
   107be:	f8843783          	ld	x15,-120(x8)
   107c2:	f2f760e3          	bltu	x14,x15,106e2 <_Z9padding2dPsPKsmsmm+0x8e>
   107c6:	fa043c23          	sd	x0,-72(x8)
   107ca:	a01d                	c.j	107f0 <_Z9padding2dPsPKsmsmm+0x19c>
   107cc:	fe843703          	ld	x14,-24(x8)
   107d0:	fb843783          	ld	x15,-72(x8)
   107d4:	97ba                	c.add	x15,x14
   107d6:	0786                	c.slli	x15,0x1
   107d8:	fa843703          	ld	x14,-88(x8)
   107dc:	97ba                	c.add	x15,x14
   107de:	f9645703          	lhu	x14,-106(x8)
   107e2:	00e79023          	sh	x14,0(x15)
   107e6:	fb843783          	ld	x15,-72(x8)
   107ea:	0785                	c.addi	x15,1
   107ec:	faf43c23          	sd	x15,-72(x8)
   107f0:	fb843703          	ld	x14,-72(x8)
   107f4:	fb043783          	ld	x15,-80(x8)
   107f8:	fcf76ae3          	bltu	x14,x15,107cc <_Z9padding2dPsPKsmsmm+0x178>
   107fc:	fe843703          	ld	x14,-24(x8)
   10800:	fb043783          	ld	x15,-80(x8)
   10804:	97ba                	c.add	x15,x14
   10806:	fef43423          	sd	x15,-24(x8)
   1080a:	0001                	c.addi	x0,0
   1080c:	70e6                	c.ldsp	x1,120(x2)
   1080e:	7446                	c.ldsp	x8,112(x2)
   10810:	6109                	c.addi16sp	x2,128
   10812:	8082                	c.jr	x1

0000000000010814 <_Z9padding2dPsPKsmsmmm>:
   10814:	7159                	c.addi16sp	x2,-112
   10816:	f486                	c.sdsp	x1,104(x2)
   10818:	f0a2                	c.sdsp	x8,96(x2)
   1081a:	1880                	c.addi4spn	x8,x2,112
   1081c:	fca43423          	sd	x10,-56(x8)
   10820:	fcb43023          	sd	x11,-64(x8)
   10824:	fac43c23          	sd	x12,-72(x8)
   10828:	fae43423          	sd	x14,-88(x8)
   1082c:	faf43023          	sd	x15,-96(x8)
   10830:	f9043c23          	sd	x16,-104(x8)
   10834:	87b6                	c.mv	x15,x13
   10836:	faf41b23          	sh	x15,-74(x8)
   1083a:	fb843783          	ld	x15,-72(x8)
   1083e:	00179713          	slli	x14,x15,0x1
   10842:	fa843783          	ld	x15,-88(x8)
   10846:	973e                	c.add	x14,x15
   10848:	fb843783          	ld	x15,-72(x8)
   1084c:	00179693          	slli	x13,x15,0x1
   10850:	fa043783          	ld	x15,-96(x8)
   10854:	97b6                	c.add	x15,x13
   10856:	02f707b3          	mul	x15,x14,x15
   1085a:	fef43023          	sd	x15,-32(x8)
   1085e:	fa843703          	ld	x14,-88(x8)
   10862:	fa043783          	ld	x15,-96(x8)
   10866:	02f707b3          	mul	x15,x14,x15
   1086a:	fcf43c23          	sd	x15,-40(x8)
   1086e:	fe043423          	sd	x0,-24(x8)
   10872:	a0b1                	c.j	108be <_Z9padding2dPsPKsmsmmm+0xaa>
   10874:	fe043703          	ld	x14,-32(x8)
   10878:	fe843783          	ld	x15,-24(x8)
   1087c:	02f707b3          	mul	x15,x14,x15
   10880:	0786                	c.slli	x15,0x1
   10882:	fc843703          	ld	x14,-56(x8)
   10886:	00f70533          	add	x10,x14,x15
   1088a:	fd843703          	ld	x14,-40(x8)
   1088e:	fe843783          	ld	x15,-24(x8)
   10892:	02f707b3          	mul	x15,x14,x15
   10896:	0786                	c.slli	x15,0x1
   10898:	fc043703          	ld	x14,-64(x8)
   1089c:	00f705b3          	add	x11,x14,x15
   108a0:	fb641683          	lh	x13,-74(x8)
   108a4:	fa043783          	ld	x15,-96(x8)
   108a8:	fa843703          	ld	x14,-88(x8)
   108ac:	fb843603          	ld	x12,-72(x8)
   108b0:	da5ff0ef          	jal	x1,10654 <_Z9padding2dPsPKsmsmm>
   108b4:	fe843783          	ld	x15,-24(x8)
   108b8:	0785                	c.addi	x15,1
   108ba:	fef43423          	sd	x15,-24(x8)
   108be:	fe843703          	ld	x14,-24(x8)
   108c2:	f9843783          	ld	x15,-104(x8)
   108c6:	faf767e3          	bltu	x14,x15,10874 <_Z9padding2dPsPKsmsmmm+0x60>
   108ca:	0001                	c.addi	x0,0
   108cc:	0001                	c.addi	x0,0
   108ce:	70a6                	c.ldsp	x1,104(x2)
   108d0:	7406                	c.ldsp	x8,96(x2)
   108d2:	6165                	c.addi16sp	x2,112
   108d4:	8082                	c.jr	x1

00000000000108d6 <_Z9padding2dPsPKsmsmmmm>:
   108d6:	7159                	c.addi16sp	x2,-112
   108d8:	f486                	c.sdsp	x1,104(x2)
   108da:	f0a2                	c.sdsp	x8,96(x2)
   108dc:	1880                	c.addi4spn	x8,x2,112
   108de:	fca43423          	sd	x10,-56(x8)
   108e2:	fcb43023          	sd	x11,-64(x8)
   108e6:	fac43c23          	sd	x12,-72(x8)
   108ea:	fae43423          	sd	x14,-88(x8)
   108ee:	faf43023          	sd	x15,-96(x8)
   108f2:	f9043c23          	sd	x16,-104(x8)
   108f6:	f9143823          	sd	x17,-112(x8)
   108fa:	87b6                	c.mv	x15,x13
   108fc:	faf41b23          	sh	x15,-74(x8)
   10900:	fb843783          	ld	x15,-72(x8)
   10904:	00179713          	slli	x14,x15,0x1
   10908:	fa843783          	ld	x15,-88(x8)
   1090c:	973e                	c.add	x14,x15
   1090e:	fb843783          	ld	x15,-72(x8)
   10912:	00179693          	slli	x13,x15,0x1
   10916:	fa043783          	ld	x15,-96(x8)
   1091a:	97b6                	c.add	x15,x13
   1091c:	02f707b3          	mul	x15,x14,x15
   10920:	f9843703          	ld	x14,-104(x8)
   10924:	02f707b3          	mul	x15,x14,x15
   10928:	fef43023          	sd	x15,-32(x8)
   1092c:	fa843703          	ld	x14,-88(x8)
   10930:	fa043783          	ld	x15,-96(x8)
   10934:	02f707b3          	mul	x15,x14,x15
   10938:	f9843703          	ld	x14,-104(x8)
   1093c:	02f707b3          	mul	x15,x14,x15
   10940:	fcf43c23          	sd	x15,-40(x8)
   10944:	fe043423          	sd	x0,-24(x8)
   10948:	a881                	c.j	10998 <_Z9padding2dPsPKsmsmmmm+0xc2>
   1094a:	fe043703          	ld	x14,-32(x8)
   1094e:	fe843783          	ld	x15,-24(x8)
   10952:	02f707b3          	mul	x15,x14,x15
   10956:	0786                	c.slli	x15,0x1
   10958:	fc843703          	ld	x14,-56(x8)
   1095c:	00f70533          	add	x10,x14,x15
   10960:	fd843703          	ld	x14,-40(x8)
   10964:	fe843783          	ld	x15,-24(x8)
   10968:	02f707b3          	mul	x15,x14,x15
   1096c:	0786                	c.slli	x15,0x1
   1096e:	fc043703          	ld	x14,-64(x8)
   10972:	00f705b3          	add	x11,x14,x15
   10976:	fb641683          	lh	x13,-74(x8)
   1097a:	f9843803          	ld	x16,-104(x8)
   1097e:	fa043783          	ld	x15,-96(x8)
   10982:	fa843703          	ld	x14,-88(x8)
   10986:	fb843603          	ld	x12,-72(x8)
   1098a:	e8bff0ef          	jal	x1,10814 <_Z9padding2dPsPKsmsmmm>
   1098e:	fe843783          	ld	x15,-24(x8)
   10992:	0785                	c.addi	x15,1
   10994:	fef43423          	sd	x15,-24(x8)
   10998:	fe843703          	ld	x14,-24(x8)
   1099c:	f9043783          	ld	x15,-112(x8)
   109a0:	faf765e3          	bltu	x14,x15,1094a <_Z9padding2dPsPKsmsmmmm+0x74>
   109a4:	0001                	c.addi	x0,0
   109a6:	0001                	c.addi	x0,0
   109a8:	70a6                	c.ldsp	x1,104(x2)
   109aa:	7406                	c.ldsp	x8,96(x2)
   109ac:	6165                	c.addi16sp	x2,112
   109ae:	8082                	c.jr	x1

00000000000109b0 <_Z15pooling2d_shapePmS_S_mmmmmmm>:
   109b0:	7159                	c.addi16sp	x2,-112
   109b2:	f486                	c.sdsp	x1,104(x2)
   109b4:	f0a2                	c.sdsp	x8,96(x2)
   109b6:	1880                	c.addi4spn	x8,x2,112
   109b8:	fca43423          	sd	x10,-56(x8)
   109bc:	fcb43023          	sd	x11,-64(x8)
   109c0:	fac43c23          	sd	x12,-72(x8)
   109c4:	fad43823          	sd	x13,-80(x8)
   109c8:	fae43423          	sd	x14,-88(x8)
   109cc:	faf43023          	sd	x15,-96(x8)
   109d0:	f9043c23          	sd	x16,-104(x8)
   109d4:	f9143823          	sd	x17,-112(x8)
   109d8:	641c                	c.ld	x15,8(x8)
   109da:	e781                	c.bnez	x15,109e2 <_Z15pooling2d_shapePmS_S_mmmmmmm+0x32>
   109dc:	f9043783          	ld	x15,-112(x8)
   109e0:	e41c                	c.sd	x15,8(x8)
   109e2:	fd840613          	addi	x12,x8,-40
   109e6:	fe040593          	addi	x11,x8,-32
   109ea:	fe840513          	addi	x10,x8,-24
   109ee:	f9843883          	ld	x17,-104(x8)
   109f2:	fa043803          	ld	x16,-96(x8)
   109f6:	fa843783          	ld	x15,-88(x8)
   109fa:	fb043703          	ld	x14,-80(x8)
   109fe:	6014                	c.ld	x13,0(x8)
   10a00:	bd9ff0ef          	jal	x1,105d8 <_Z15padding2d_shapePmS_S_mmmmm>
   10a04:	fe043703          	ld	x14,-32(x8)
   10a08:	f9043783          	ld	x15,-112(x8)
   10a0c:	8f1d                	c.sub	x14,x15
   10a0e:	641c                	c.ld	x15,8(x8)
   10a10:	02f757b3          	divu	x15,x14,x15
   10a14:	00178713          	addi	x14,x15,1
   10a18:	fc043783          	ld	x15,-64(x8)
   10a1c:	e398                	c.sd	x14,0(x15)
   10a1e:	fd843703          	ld	x14,-40(x8)
   10a22:	f9043783          	ld	x15,-112(x8)
   10a26:	8f1d                	c.sub	x14,x15
   10a28:	641c                	c.ld	x15,8(x8)
   10a2a:	02f757b3          	divu	x15,x14,x15
   10a2e:	00178713          	addi	x14,x15,1
   10a32:	fb843783          	ld	x15,-72(x8)
   10a36:	e398                	c.sd	x14,0(x15)
   10a38:	fc043783          	ld	x15,-64(x8)
   10a3c:	6398                	c.ld	x14,0(x15)
   10a3e:	fb843783          	ld	x15,-72(x8)
   10a42:	639c                	c.ld	x15,0(x15)
   10a44:	02f70733          	mul	x14,x14,x15
   10a48:	fa043783          	ld	x15,-96(x8)
   10a4c:	02f70733          	mul	x14,x14,x15
   10a50:	f9843783          	ld	x15,-104(x8)
   10a54:	02f70733          	mul	x14,x14,x15
   10a58:	fc843783          	ld	x15,-56(x8)
   10a5c:	e398                	c.sd	x14,0(x15)
   10a5e:	0001                	c.addi	x0,0
   10a60:	70a6                	c.ldsp	x1,104(x2)
   10a62:	7406                	c.ldsp	x8,96(x2)
   10a64:	6165                	c.addi16sp	x2,112
   10a66:	8082                	c.jr	x1

0000000000010a68 <_ZL11fit_dotprodPsPKsS1_m>:
   10a68:	7179                	c.addi16sp	x2,-48
   10a6a:	f406                	c.sdsp	x1,40(x2)
   10a6c:	f022                	c.sdsp	x8,32(x2)
   10a6e:	1800                	c.addi4spn	x8,x2,48
   10a70:	fea43423          	sd	x10,-24(x8)
   10a74:	feb43023          	sd	x11,-32(x8)
   10a78:	fcc43c23          	sd	x12,-40(x8)
   10a7c:	fcd43823          	sd	x13,-48(x8)
   10a80:	fd043703          	ld	x14,-48(x8)
   10a84:	47a1                	c.li	x15,8
   10a86:	02e7f163          	bgeu	x15,x14,10aa8 <_ZL11fit_dotprodPsPKsS1_m+0x40>
   10a8a:	000287b7          	lui	x15,0x28
   10a8e:	07078693          	addi	x13,x15,112 # 28070 <__clzdi2+0xae>
   10a92:	000287b7          	lui	x15,0x28
   10a96:	08878613          	addi	x12,x15,136 # 28088 <__clzdi2+0xc6>
   10a9a:	45ad                	c.li	x11,11
   10a9c:	000287b7          	lui	x15,0x28
   10aa0:	0c878513          	addi	x10,x15,200 # 280c8 <__clzdi2+0x106>
   10aa4:	04a0b0ef          	jal	x1,1baee <__assert_func>
   10aa8:	fd043783          	ld	x15,-48(x8)
   10aac:	18f7b00b          	config.fiona	x0,x15,x15
   10ab0:	fe043783          	ld	x15,-32(x8)
   10ab4:	1007a08b          	vld.fiona	x1,x15
   10ab8:	fd843783          	ld	x15,-40(x8)
   10abc:	1007a10b          	vld.fiona	x2,x15
   10ac0:	1a20c70b          	dotp.fiona	x14,x1,x2
   10ac4:	fe843783          	ld	x15,-24(x8)
   10ac8:	00e79023          	sh	x14,0(x15)
   10acc:	0001                	c.addi	x0,0
   10ace:	70a2                	c.ldsp	x1,40(x2)
   10ad0:	7402                	c.ldsp	x8,32(x2)
   10ad2:	6145                	c.addi16sp	x2,48
   10ad4:	8082                	c.jr	x1

0000000000010ad6 <_ZL13tiled_dotprodPsPKsS1_m>:
   10ad6:	7159                	c.addi16sp	x2,-112
   10ad8:	f486                	c.sdsp	x1,104(x2)
   10ada:	f0a2                	c.sdsp	x8,96(x2)
   10adc:	1880                	c.addi4spn	x8,x2,112
   10ade:	faa43423          	sd	x10,-88(x8)
   10ae2:	fab43023          	sd	x11,-96(x8)
   10ae6:	f8c43c23          	sd	x12,-104(x8)
   10aea:	f8d43823          	sd	x13,-112(x8)
   10aee:	f9043703          	ld	x14,-112(x8)
   10af2:	47a1                	c.li	x15,8
   10af4:	00e7ed63          	bltu	x15,x14,10b0e <_ZL13tiled_dotprodPsPKsS1_m+0x38>
   10af8:	f9043683          	ld	x13,-112(x8)
   10afc:	f9843603          	ld	x12,-104(x8)
   10b00:	fa043583          	ld	x11,-96(x8)
   10b04:	fa843503          	ld	x10,-88(x8)
   10b08:	f61ff0ef          	jal	x1,10a68 <_ZL11fit_dotprodPsPKsS1_m>
   10b0c:	a0d5                	c.j	10bf0 <_ZL13tiled_dotprodPsPKsS1_m+0x11a>
   10b0e:	f9043783          	ld	x15,-112(x8)
   10b12:	8b9d                	c.andi	x15,7
   10b14:	fcf43c23          	sd	x15,-40(x8)
   10b18:	f9043783          	ld	x15,-112(x8)
   10b1c:	838d                	c.srli	x15,0x3
   10b1e:	fcf43823          	sd	x15,-48(x8)
   10b22:	fe041723          	sh	x0,-18(x8)
   10b26:	fa041f23          	sh	x0,-66(x8)
   10b2a:	fe043023          	sd	x0,-32(x8)
   10b2e:	a891                	c.j	10b82 <_ZL13tiled_dotprodPsPKsS1_m+0xac>
   10b30:	fe043783          	ld	x15,-32(x8)
   10b34:	078e                	c.slli	x15,0x3
   10b36:	fcf43023          	sd	x15,-64(x8)
   10b3a:	fc043783          	ld	x15,-64(x8)
   10b3e:	0786                	c.slli	x15,0x1
   10b40:	fa043703          	ld	x14,-96(x8)
   10b44:	00f705b3          	add	x11,x14,x15
   10b48:	fc043783          	ld	x15,-64(x8)
   10b4c:	0786                	c.slli	x15,0x1
   10b4e:	f9843703          	ld	x14,-104(x8)
   10b52:	973e                	c.add	x14,x15
   10b54:	fbe40793          	addi	x15,x8,-66
   10b58:	46a1                	c.li	x13,8
   10b5a:	863a                	c.mv	x12,x14
   10b5c:	853e                	c.mv	x10,x15
   10b5e:	f0bff0ef          	jal	x1,10a68 <_ZL11fit_dotprodPsPKsS1_m>
   10b62:	fee45703          	lhu	x14,-18(x8)
   10b66:	fbe41783          	lh	x15,-66(x8)
   10b6a:	17c2                	c.slli	x15,0x30
   10b6c:	93c1                	c.srli	x15,0x30
   10b6e:	9fb9                	c.addw	x15,x14
   10b70:	17c2                	c.slli	x15,0x30
   10b72:	93c1                	c.srli	x15,0x30
   10b74:	fef41723          	sh	x15,-18(x8)
   10b78:	fe043783          	ld	x15,-32(x8)
   10b7c:	0785                	c.addi	x15,1
   10b7e:	fef43023          	sd	x15,-32(x8)
   10b82:	fe043703          	ld	x14,-32(x8)
   10b86:	fd043783          	ld	x15,-48(x8)
   10b8a:	faf763e3          	bltu	x14,x15,10b30 <_ZL13tiled_dotprodPsPKsS1_m+0x5a>
   10b8e:	fd843783          	ld	x15,-40(x8)
   10b92:	cba9                	c.beqz	x15,10be4 <_ZL13tiled_dotprodPsPKsS1_m+0x10e>
   10b94:	f9043703          	ld	x14,-112(x8)
   10b98:	fd843783          	ld	x15,-40(x8)
   10b9c:	40f707b3          	sub	x15,x14,x15
   10ba0:	fcf43423          	sd	x15,-56(x8)
   10ba4:	fc843783          	ld	x15,-56(x8)
   10ba8:	0786                	c.slli	x15,0x1
   10baa:	fa043703          	ld	x14,-96(x8)
   10bae:	00f705b3          	add	x11,x14,x15
   10bb2:	fc843783          	ld	x15,-56(x8)
   10bb6:	0786                	c.slli	x15,0x1
   10bb8:	f9843703          	ld	x14,-104(x8)
   10bbc:	973e                	c.add	x14,x15
   10bbe:	fbe40793          	addi	x15,x8,-66
   10bc2:	fd843683          	ld	x13,-40(x8)
   10bc6:	863a                	c.mv	x12,x14
   10bc8:	853e                	c.mv	x10,x15
   10bca:	e9fff0ef          	jal	x1,10a68 <_ZL11fit_dotprodPsPKsS1_m>
   10bce:	fee45703          	lhu	x14,-18(x8)
   10bd2:	fbe41783          	lh	x15,-66(x8)
   10bd6:	17c2                	c.slli	x15,0x30
   10bd8:	93c1                	c.srli	x15,0x30
   10bda:	9fb9                	c.addw	x15,x14
   10bdc:	17c2                	c.slli	x15,0x30
   10bde:	93c1                	c.srli	x15,0x30
   10be0:	fef41723          	sh	x15,-18(x8)
   10be4:	fa843783          	ld	x15,-88(x8)
   10be8:	fee45703          	lhu	x14,-18(x8)
   10bec:	00e79023          	sh	x14,0(x15)
   10bf0:	0001                	c.addi	x0,0
   10bf2:	70a6                	c.ldsp	x1,104(x2)
   10bf4:	7406                	c.ldsp	x8,96(x2)
   10bf6:	6165                	c.addi16sp	x2,112
   10bf8:	8082                	c.jr	x1

0000000000010bfa <_ZL9tiled_mvmPsPKsS1_mm>:
   10bfa:	715d                	c.addi16sp	x2,-80
   10bfc:	e486                	c.sdsp	x1,72(x2)
   10bfe:	e0a2                	c.sdsp	x8,64(x2)
   10c00:	0880                	c.addi4spn	x8,x2,80
   10c02:	fca43c23          	sd	x10,-40(x8)
   10c06:	fcb43823          	sd	x11,-48(x8)
   10c0a:	fcc43423          	sd	x12,-56(x8)
   10c0e:	fcd43023          	sd	x13,-64(x8)
   10c12:	fae43c23          	sd	x14,-72(x8)
   10c16:	fd843783          	ld	x15,-40(x8)
   10c1a:	e395                	c.bnez	x15,10c3e <_ZL9tiled_mvmPsPKsS1_mm+0x44>
   10c1c:	000287b7          	lui	x15,0x28
   10c20:	0e078513          	addi	x10,x15,224 # 280e0 <__clzdi2+0x11e>
   10c24:	7170b0ef          	jal	x1,1cb3a <puts>
   10c28:	fc043583          	ld	x11,-64(x8)
   10c2c:	000287b7          	lui	x15,0x28
   10c30:	13078513          	addi	x10,x15,304 # 28130 <__clzdi2+0x16e>
   10c34:	58f0b0ef          	jal	x1,1c9c2 <printf>
   10c38:	557d                	c.li	x10,-1
   10c3a:	7090a0ef          	jal	x1,1bb42 <exit>
   10c3e:	fe043423          	sd	x0,-24(x8)
   10c42:	a835                	c.j	10c7e <_ZL9tiled_mvmPsPKsS1_mm+0x84>
   10c44:	fe843783          	ld	x15,-24(x8)
   10c48:	0786                	c.slli	x15,0x1
   10c4a:	fd843703          	ld	x14,-40(x8)
   10c4e:	00f70533          	add	x10,x14,x15
   10c52:	fe843703          	ld	x14,-24(x8)
   10c56:	fb843783          	ld	x15,-72(x8)
   10c5a:	02f707b3          	mul	x15,x14,x15
   10c5e:	0786                	c.slli	x15,0x1
   10c60:	fd043703          	ld	x14,-48(x8)
   10c64:	97ba                	c.add	x15,x14
   10c66:	fb843683          	ld	x13,-72(x8)
   10c6a:	fc843603          	ld	x12,-56(x8)
   10c6e:	85be                	c.mv	x11,x15
   10c70:	e67ff0ef          	jal	x1,10ad6 <_ZL13tiled_dotprodPsPKsS1_m>
   10c74:	fe843783          	ld	x15,-24(x8)
   10c78:	0785                	c.addi	x15,1
   10c7a:	fef43423          	sd	x15,-24(x8)
   10c7e:	fe843703          	ld	x14,-24(x8)
   10c82:	fc043783          	ld	x15,-64(x8)
   10c86:	faf76fe3          	bltu	x14,x15,10c44 <_ZL9tiled_mvmPsPKsS1_mm+0x4a>
   10c8a:	0001                	c.addi	x0,0
   10c8c:	0001                	c.addi	x0,0
   10c8e:	60a6                	c.ldsp	x1,72(x2)
   10c90:	6406                	c.ldsp	x8,64(x2)
   10c92:	6161                	c.addi16sp	x2,80
   10c94:	8082                	c.jr	x1

0000000000010c96 <_ZL22tiled_matmul_transposePsPKsS1_mmm>:
   10c96:	715d                	c.addi16sp	x2,-80
   10c98:	e486                	c.sdsp	x1,72(x2)
   10c9a:	e0a2                	c.sdsp	x8,64(x2)
   10c9c:	0880                	c.addi4spn	x8,x2,80
   10c9e:	fca43c23          	sd	x10,-40(x8)
   10ca2:	fcb43823          	sd	x11,-48(x8)
   10ca6:	fcc43423          	sd	x12,-56(x8)
   10caa:	fcd43023          	sd	x13,-64(x8)
   10cae:	fae43c23          	sd	x14,-72(x8)
   10cb2:	faf43823          	sd	x15,-80(x8)
   10cb6:	fd843783          	ld	x15,-40(x8)
   10cba:	e785                	c.bnez	x15,10ce2 <_ZL22tiled_matmul_transposePsPKsS1_mmm+0x4c>
   10cbc:	000287b7          	lui	x15,0x28
   10cc0:	15078513          	addi	x10,x15,336 # 28150 <__clzdi2+0x18e>
   10cc4:	6770b0ef          	jal	x1,1cb3a <puts>
   10cc8:	fc043603          	ld	x12,-64(x8)
   10ccc:	fb043583          	ld	x11,-80(x8)
   10cd0:	000287b7          	lui	x15,0x28
   10cd4:	1a878513          	addi	x10,x15,424 # 281a8 <__clzdi2+0x1e6>
   10cd8:	4eb0b0ef          	jal	x1,1c9c2 <printf>
   10cdc:	557d                	c.li	x10,-1
   10cde:	6650a0ef          	jal	x1,1bb42 <exit>
   10ce2:	fe043423          	sd	x0,-24(x8)
   10ce6:	a0a1                	c.j	10d2e <_ZL22tiled_matmul_transposePsPKsS1_mmm+0x98>
   10ce8:	fe843703          	ld	x14,-24(x8)
   10cec:	fc043783          	ld	x15,-64(x8)
   10cf0:	02f707b3          	mul	x15,x14,x15
   10cf4:	0786                	c.slli	x15,0x1
   10cf6:	fd843703          	ld	x14,-40(x8)
   10cfa:	00f70533          	add	x10,x14,x15
   10cfe:	fe843703          	ld	x14,-24(x8)
   10d02:	fb843783          	ld	x15,-72(x8)
   10d06:	02f707b3          	mul	x15,x14,x15
   10d0a:	0786                	c.slli	x15,0x1
   10d0c:	fc843703          	ld	x14,-56(x8)
   10d10:	97ba                	c.add	x15,x14
   10d12:	fb843703          	ld	x14,-72(x8)
   10d16:	fc043683          	ld	x13,-64(x8)
   10d1a:	863e                	c.mv	x12,x15
   10d1c:	fd043583          	ld	x11,-48(x8)
   10d20:	edbff0ef          	jal	x1,10bfa <_ZL9tiled_mvmPsPKsS1_mm>
   10d24:	fe843783          	ld	x15,-24(x8)
   10d28:	0785                	c.addi	x15,1
   10d2a:	fef43423          	sd	x15,-24(x8)
   10d2e:	fe843703          	ld	x14,-24(x8)
   10d32:	fb043783          	ld	x15,-80(x8)
   10d36:	faf769e3          	bltu	x14,x15,10ce8 <_ZL22tiled_matmul_transposePsPKsS1_mmm+0x52>
   10d3a:	0001                	c.addi	x0,0
   10d3c:	0001                	c.addi	x0,0
   10d3e:	60a6                	c.ldsp	x1,72(x2)
   10d40:	6406                	c.ldsp	x8,64(x2)
   10d42:	6161                	c.addi16sp	x2,80
   10d44:	8082                	c.jr	x1

0000000000010d46 <_ZL14fit_vector_addPsPKsS1_m>:
   10d46:	7179                	c.addi16sp	x2,-48
   10d48:	f406                	c.sdsp	x1,40(x2)
   10d4a:	f022                	c.sdsp	x8,32(x2)
   10d4c:	1800                	c.addi4spn	x8,x2,48
   10d4e:	fea43423          	sd	x10,-24(x8)
   10d52:	feb43023          	sd	x11,-32(x8)
   10d56:	fcc43c23          	sd	x12,-40(x8)
   10d5a:	fcd43823          	sd	x13,-48(x8)
   10d5e:	fd043703          	ld	x14,-48(x8)
   10d62:	02000793          	addi	x15,x0,32
   10d66:	02e7f263          	bgeu	x15,x14,10d8a <_ZL14fit_vector_addPsPKsS1_m+0x44>
   10d6a:	000287b7          	lui	x15,0x28
   10d6e:	1d078693          	addi	x13,x15,464 # 281d0 <__clzdi2+0x20e>
   10d72:	000287b7          	lui	x15,0x28
   10d76:	1e878613          	addi	x12,x15,488 # 281e8 <__clzdi2+0x226>
   10d7a:	04300593          	addi	x11,x0,67
   10d7e:	000287b7          	lui	x15,0x28
   10d82:	0c878513          	addi	x10,x15,200 # 280c8 <__clzdi2+0x106>
   10d86:	5690a0ef          	jal	x1,1baee <__assert_func>
   10d8a:	fd043783          	ld	x15,-48(x8)
   10d8e:	18f7b00b          	config.fiona	x0,x15,x15
   10d92:	fe043783          	ld	x15,-32(x8)
   10d96:	1007a08b          	vld.fiona	x1,x15
   10d9a:	fd843783          	ld	x15,-40(x8)
   10d9e:	1007a10b          	vld.fiona	x2,x15
   10da2:	0220818b          	add.v.fiona	x3,x1,x2
   10da6:	fe843783          	ld	x15,-24(x8)
   10daa:	1237a00b          	vst.fiona	x15,x3
   10dae:	0001                	c.addi	x0,0
   10db0:	70a2                	c.ldsp	x1,40(x2)
   10db2:	7402                	c.ldsp	x8,32(x2)
   10db4:	6145                	c.addi16sp	x2,48
   10db6:	8082                	c.jr	x1

0000000000010db8 <_ZL16tiled_vector_addPsPKsS1_m>:
   10db8:	711d                	c.addi16sp	x2,-96
   10dba:	ec86                	c.sdsp	x1,88(x2)
   10dbc:	e8a2                	c.sdsp	x8,80(x2)
   10dbe:	1080                	c.addi4spn	x8,x2,96
   10dc0:	faa43c23          	sd	x10,-72(x8)
   10dc4:	fab43823          	sd	x11,-80(x8)
   10dc8:	fac43423          	sd	x12,-88(x8)
   10dcc:	fad43023          	sd	x13,-96(x8)
   10dd0:	fb843783          	ld	x15,-72(x8)
   10dd4:	e395                	c.bnez	x15,10df8 <_ZL16tiled_vector_addPsPKsS1_m+0x40>
   10dd6:	000287b7          	lui	x15,0x28
   10dda:	23078513          	addi	x10,x15,560 # 28230 <__clzdi2+0x26e>
   10dde:	55d0b0ef          	jal	x1,1cb3a <puts>
   10de2:	fa043583          	ld	x11,-96(x8)
   10de6:	000287b7          	lui	x15,0x28
   10dea:	28078513          	addi	x10,x15,640 # 28280 <__clzdi2+0x2be>
   10dee:	3d50b0ef          	jal	x1,1c9c2 <printf>
   10df2:	557d                	c.li	x10,-1
   10df4:	54f0a0ef          	jal	x1,1bb42 <exit>
   10df8:	fa043703          	ld	x14,-96(x8)
   10dfc:	02000793          	addi	x15,x0,32
   10e00:	00e7ed63          	bltu	x15,x14,10e1a <_ZL16tiled_vector_addPsPKsS1_m+0x62>
   10e04:	fa043683          	ld	x13,-96(x8)
   10e08:	fa843603          	ld	x12,-88(x8)
   10e0c:	fb043583          	ld	x11,-80(x8)
   10e10:	fb843503          	ld	x10,-72(x8)
   10e14:	f33ff0ef          	jal	x1,10d46 <_ZL14fit_vector_addPsPKsS1_m>
   10e18:	a85d                	c.j	10ece <_ZL16tiled_vector_addPsPKsS1_m+0x116>
   10e1a:	fa043783          	ld	x15,-96(x8)
   10e1e:	8bfd                	c.andi	x15,31
   10e20:	fef43023          	sd	x15,-32(x8)
   10e24:	fa043783          	ld	x15,-96(x8)
   10e28:	8395                	c.srli	x15,0x5
   10e2a:	fcf43c23          	sd	x15,-40(x8)
   10e2e:	fe043423          	sd	x0,-24(x8)
   10e32:	a0a1                	c.j	10e7a <_ZL16tiled_vector_addPsPKsS1_m+0xc2>
   10e34:	fe843783          	ld	x15,-24(x8)
   10e38:	0796                	c.slli	x15,0x5
   10e3a:	fcf43423          	sd	x15,-56(x8)
   10e3e:	fc843783          	ld	x15,-56(x8)
   10e42:	0786                	c.slli	x15,0x1
   10e44:	fb843703          	ld	x14,-72(x8)
   10e48:	00f70533          	add	x10,x14,x15
   10e4c:	fc843783          	ld	x15,-56(x8)
   10e50:	0786                	c.slli	x15,0x1
   10e52:	fb043703          	ld	x14,-80(x8)
   10e56:	00f705b3          	add	x11,x14,x15
   10e5a:	fc843783          	ld	x15,-56(x8)
   10e5e:	0786                	c.slli	x15,0x1
   10e60:	fa843703          	ld	x14,-88(x8)
   10e64:	97ba                	c.add	x15,x14
   10e66:	02000693          	addi	x13,x0,32
   10e6a:	863e                	c.mv	x12,x15
   10e6c:	edbff0ef          	jal	x1,10d46 <_ZL14fit_vector_addPsPKsS1_m>
   10e70:	fe843783          	ld	x15,-24(x8)
   10e74:	0785                	c.addi	x15,1
   10e76:	fef43423          	sd	x15,-24(x8)
   10e7a:	fe843703          	ld	x14,-24(x8)
   10e7e:	fd843783          	ld	x15,-40(x8)
   10e82:	faf769e3          	bltu	x14,x15,10e34 <_ZL16tiled_vector_addPsPKsS1_m+0x7c>
   10e86:	fe043783          	ld	x15,-32(x8)
   10e8a:	c3b1                	c.beqz	x15,10ece <_ZL16tiled_vector_addPsPKsS1_m+0x116>
   10e8c:	fa043703          	ld	x14,-96(x8)
   10e90:	fe043783          	ld	x15,-32(x8)
   10e94:	40f707b3          	sub	x15,x14,x15
   10e98:	fcf43823          	sd	x15,-48(x8)
   10e9c:	fd043783          	ld	x15,-48(x8)
   10ea0:	0786                	c.slli	x15,0x1
   10ea2:	fb843703          	ld	x14,-72(x8)
   10ea6:	00f70533          	add	x10,x14,x15
   10eaa:	fd043783          	ld	x15,-48(x8)
   10eae:	0786                	c.slli	x15,0x1
   10eb0:	fb043703          	ld	x14,-80(x8)
   10eb4:	00f705b3          	add	x11,x14,x15
   10eb8:	fd043783          	ld	x15,-48(x8)
   10ebc:	0786                	c.slli	x15,0x1
   10ebe:	fa843703          	ld	x14,-88(x8)
   10ec2:	97ba                	c.add	x15,x14
   10ec4:	fe043683          	ld	x13,-32(x8)
   10ec8:	863e                	c.mv	x12,x15
   10eca:	e7dff0ef          	jal	x1,10d46 <_ZL14fit_vector_addPsPKsS1_m>
   10ece:	0001                	c.addi	x0,0
   10ed0:	60e6                	c.ldsp	x1,88(x2)
   10ed2:	6446                	c.ldsp	x8,80(x2)
   10ed4:	6125                	c.addi16sp	x2,96
   10ed6:	8082                	c.jr	x1

0000000000010ed8 <_ZL23tiled_matrix_vector_addPsPKsS1_mm>:
   10ed8:	715d                	c.addi16sp	x2,-80
   10eda:	e486                	c.sdsp	x1,72(x2)
   10edc:	e0a2                	c.sdsp	x8,64(x2)
   10ede:	0880                	c.addi4spn	x8,x2,80
   10ee0:	fca43c23          	sd	x10,-40(x8)
   10ee4:	fcb43823          	sd	x11,-48(x8)
   10ee8:	fcc43423          	sd	x12,-56(x8)
   10eec:	fcd43023          	sd	x13,-64(x8)
   10ef0:	fae43c23          	sd	x14,-72(x8)
   10ef4:	fd843783          	ld	x15,-40(x8)
   10ef8:	e785                	c.bnez	x15,10f20 <_ZL23tiled_matrix_vector_addPsPKsS1_mm+0x48>
   10efa:	000287b7          	lui	x15,0x28
   10efe:	2a078513          	addi	x10,x15,672 # 282a0 <__clzdi2+0x2de>
   10f02:	4390b0ef          	jal	x1,1cb3a <puts>
   10f06:	fb843603          	ld	x12,-72(x8)
   10f0a:	fc043583          	ld	x11,-64(x8)
   10f0e:	000287b7          	lui	x15,0x28
   10f12:	2f878513          	addi	x10,x15,760 # 282f8 <__clzdi2+0x336>
   10f16:	2ad0b0ef          	jal	x1,1c9c2 <printf>
   10f1a:	557d                	c.li	x10,-1
   10f1c:	4270a0ef          	jal	x1,1bb42 <exit>
   10f20:	fe043423          	sd	x0,-24(x8)
   10f24:	a091                	c.j	10f68 <_ZL23tiled_matrix_vector_addPsPKsS1_mm+0x90>
   10f26:	fe843703          	ld	x14,-24(x8)
   10f2a:	fb843783          	ld	x15,-72(x8)
   10f2e:	02f707b3          	mul	x15,x14,x15
   10f32:	0786                	c.slli	x15,0x1
   10f34:	fd843703          	ld	x14,-40(x8)
   10f38:	00f70533          	add	x10,x14,x15
   10f3c:	fe843703          	ld	x14,-24(x8)
   10f40:	fb843783          	ld	x15,-72(x8)
   10f44:	02f707b3          	mul	x15,x14,x15
   10f48:	0786                	c.slli	x15,0x1
   10f4a:	fd043703          	ld	x14,-48(x8)
   10f4e:	97ba                	c.add	x15,x14
   10f50:	fb843683          	ld	x13,-72(x8)
   10f54:	fc843603          	ld	x12,-56(x8)
   10f58:	85be                	c.mv	x11,x15
   10f5a:	e5fff0ef          	jal	x1,10db8 <_ZL16tiled_vector_addPsPKsS1_m>
   10f5e:	fe843783          	ld	x15,-24(x8)
   10f62:	0785                	c.addi	x15,1
   10f64:	fef43423          	sd	x15,-24(x8)
   10f68:	fe843703          	ld	x14,-24(x8)
   10f6c:	fc043783          	ld	x15,-64(x8)
   10f70:	faf76be3          	bltu	x14,x15,10f26 <_ZL23tiled_matrix_vector_addPsPKsS1_mm+0x4e>
   10f74:	0001                	c.addi	x0,0
   10f76:	0001                	c.addi	x0,0
   10f78:	60a6                	c.ldsp	x1,72(x2)
   10f7a:	6406                	c.ldsp	x8,64(x2)
   10f7c:	6161                	c.addi16sp	x2,80
   10f7e:	8082                	c.jr	x1

0000000000010f80 <_ZL14fit_vector_subPsPKsS1_m>:
   10f80:	7179                	c.addi16sp	x2,-48
   10f82:	f406                	c.sdsp	x1,40(x2)
   10f84:	f022                	c.sdsp	x8,32(x2)
   10f86:	1800                	c.addi4spn	x8,x2,48
   10f88:	fea43423          	sd	x10,-24(x8)
   10f8c:	feb43023          	sd	x11,-32(x8)
   10f90:	fcc43c23          	sd	x12,-40(x8)
   10f94:	fcd43823          	sd	x13,-48(x8)
   10f98:	fd043703          	ld	x14,-48(x8)
   10f9c:	02000793          	addi	x15,x0,32
   10fa0:	02e7f263          	bgeu	x15,x14,10fc4 <_ZL14fit_vector_subPsPKsS1_m+0x44>
   10fa4:	000287b7          	lui	x15,0x28
   10fa8:	1d078693          	addi	x13,x15,464 # 281d0 <__clzdi2+0x20e>
   10fac:	000287b7          	lui	x15,0x28
   10fb0:	32878613          	addi	x12,x15,808 # 28328 <__clzdi2+0x366>
   10fb4:	07300593          	addi	x11,x0,115
   10fb8:	000287b7          	lui	x15,0x28
   10fbc:	0c878513          	addi	x10,x15,200 # 280c8 <__clzdi2+0x106>
   10fc0:	32f0a0ef          	jal	x1,1baee <__assert_func>
   10fc4:	fd043783          	ld	x15,-48(x8)
   10fc8:	18f7b00b          	config.fiona	x0,x15,x15
   10fcc:	fe043783          	ld	x15,-32(x8)
   10fd0:	1007a08b          	vld.fiona	x1,x15
   10fd4:	fd843783          	ld	x15,-40(x8)
   10fd8:	1007a10b          	vld.fiona	x2,x15
   10fdc:	0420818b          	sub.v.fiona	x3,x1,x2
   10fe0:	fe843783          	ld	x15,-24(x8)
   10fe4:	1237a00b          	vst.fiona	x15,x3
   10fe8:	0001                	c.addi	x0,0
   10fea:	70a2                	c.ldsp	x1,40(x2)
   10fec:	7402                	c.ldsp	x8,32(x2)
   10fee:	6145                	c.addi16sp	x2,48
   10ff0:	8082                	c.jr	x1

0000000000010ff2 <_ZL16tiled_vector_subPsPKsS1_m>:
   10ff2:	711d                	c.addi16sp	x2,-96
   10ff4:	ec86                	c.sdsp	x1,88(x2)
   10ff6:	e8a2                	c.sdsp	x8,80(x2)
   10ff8:	1080                	c.addi4spn	x8,x2,96
   10ffa:	faa43c23          	sd	x10,-72(x8)
   10ffe:	fab43823          	sd	x11,-80(x8)
   11002:	fac43423          	sd	x12,-88(x8)
   11006:	fad43023          	sd	x13,-96(x8)
   1100a:	fb843783          	ld	x15,-72(x8)
   1100e:	e395                	c.bnez	x15,11032 <_ZL16tiled_vector_subPsPKsS1_m+0x40>
   11010:	000287b7          	lui	x15,0x28
   11014:	37078513          	addi	x10,x15,880 # 28370 <__clzdi2+0x3ae>
   11018:	3230b0ef          	jal	x1,1cb3a <puts>
   1101c:	fa043583          	ld	x11,-96(x8)
   11020:	000287b7          	lui	x15,0x28
   11024:	28078513          	addi	x10,x15,640 # 28280 <__clzdi2+0x2be>
   11028:	19b0b0ef          	jal	x1,1c9c2 <printf>
   1102c:	557d                	c.li	x10,-1
   1102e:	3150a0ef          	jal	x1,1bb42 <exit>
   11032:	fa043703          	ld	x14,-96(x8)
   11036:	02000793          	addi	x15,x0,32
   1103a:	00e7ed63          	bltu	x15,x14,11054 <_ZL16tiled_vector_subPsPKsS1_m+0x62>
   1103e:	fa043683          	ld	x13,-96(x8)
   11042:	fa843603          	ld	x12,-88(x8)
   11046:	fb043583          	ld	x11,-80(x8)
   1104a:	fb843503          	ld	x10,-72(x8)
   1104e:	f33ff0ef          	jal	x1,10f80 <_ZL14fit_vector_subPsPKsS1_m>
   11052:	a85d                	c.j	11108 <_ZL16tiled_vector_subPsPKsS1_m+0x116>
   11054:	fa043783          	ld	x15,-96(x8)
   11058:	8bfd                	c.andi	x15,31
   1105a:	fef43023          	sd	x15,-32(x8)
   1105e:	fa043783          	ld	x15,-96(x8)
   11062:	8395                	c.srli	x15,0x5
   11064:	fcf43c23          	sd	x15,-40(x8)
   11068:	fe043423          	sd	x0,-24(x8)
   1106c:	a0a1                	c.j	110b4 <_ZL16tiled_vector_subPsPKsS1_m+0xc2>
   1106e:	fe843783          	ld	x15,-24(x8)
   11072:	0796                	c.slli	x15,0x5
   11074:	fcf43423          	sd	x15,-56(x8)
   11078:	fc843783          	ld	x15,-56(x8)
   1107c:	0786                	c.slli	x15,0x1
   1107e:	fb843703          	ld	x14,-72(x8)
   11082:	00f70533          	add	x10,x14,x15
   11086:	fc843783          	ld	x15,-56(x8)
   1108a:	0786                	c.slli	x15,0x1
   1108c:	fb043703          	ld	x14,-80(x8)
   11090:	00f705b3          	add	x11,x14,x15
   11094:	fc843783          	ld	x15,-56(x8)
   11098:	0786                	c.slli	x15,0x1
   1109a:	fa843703          	ld	x14,-88(x8)
   1109e:	97ba                	c.add	x15,x14
   110a0:	02000693          	addi	x13,x0,32
   110a4:	863e                	c.mv	x12,x15
   110a6:	edbff0ef          	jal	x1,10f80 <_ZL14fit_vector_subPsPKsS1_m>
   110aa:	fe843783          	ld	x15,-24(x8)
   110ae:	0785                	c.addi	x15,1
   110b0:	fef43423          	sd	x15,-24(x8)
   110b4:	fe843703          	ld	x14,-24(x8)
   110b8:	fd843783          	ld	x15,-40(x8)
   110bc:	faf769e3          	bltu	x14,x15,1106e <_ZL16tiled_vector_subPsPKsS1_m+0x7c>
   110c0:	fe043783          	ld	x15,-32(x8)
   110c4:	c3b1                	c.beqz	x15,11108 <_ZL16tiled_vector_subPsPKsS1_m+0x116>
   110c6:	fa043703          	ld	x14,-96(x8)
   110ca:	fe043783          	ld	x15,-32(x8)
   110ce:	40f707b3          	sub	x15,x14,x15
   110d2:	fcf43823          	sd	x15,-48(x8)
   110d6:	fd043783          	ld	x15,-48(x8)
   110da:	0786                	c.slli	x15,0x1
   110dc:	fb843703          	ld	x14,-72(x8)
   110e0:	00f70533          	add	x10,x14,x15
   110e4:	fd043783          	ld	x15,-48(x8)
   110e8:	0786                	c.slli	x15,0x1
   110ea:	fb043703          	ld	x14,-80(x8)
   110ee:	00f705b3          	add	x11,x14,x15
   110f2:	fd043783          	ld	x15,-48(x8)
   110f6:	0786                	c.slli	x15,0x1
   110f8:	fa843703          	ld	x14,-88(x8)
   110fc:	97ba                	c.add	x15,x14
   110fe:	fe043683          	ld	x13,-32(x8)
   11102:	863e                	c.mv	x12,x15
   11104:	e7dff0ef          	jal	x1,10f80 <_ZL14fit_vector_subPsPKsS1_m>
   11108:	0001                	c.addi	x0,0
   1110a:	60e6                	c.ldsp	x1,88(x2)
   1110c:	6446                	c.ldsp	x8,80(x2)
   1110e:	6125                	c.addi16sp	x2,96
   11110:	8082                	c.jr	x1

0000000000011112 <_ZL23tiled_matrix_vector_subPsPKsS1_mm>:
   11112:	715d                	c.addi16sp	x2,-80
   11114:	e486                	c.sdsp	x1,72(x2)
   11116:	e0a2                	c.sdsp	x8,64(x2)
   11118:	0880                	c.addi4spn	x8,x2,80
   1111a:	fca43c23          	sd	x10,-40(x8)
   1111e:	fcb43823          	sd	x11,-48(x8)
   11122:	fcc43423          	sd	x12,-56(x8)
   11126:	fcd43023          	sd	x13,-64(x8)
   1112a:	fae43c23          	sd	x14,-72(x8)
   1112e:	fd843783          	ld	x15,-40(x8)
   11132:	e785                	c.bnez	x15,1115a <_ZL23tiled_matrix_vector_subPsPKsS1_mm+0x48>
   11134:	000287b7          	lui	x15,0x28
   11138:	3c078513          	addi	x10,x15,960 # 283c0 <__clzdi2+0x3fe>
   1113c:	1ff0b0ef          	jal	x1,1cb3a <puts>
   11140:	fb843603          	ld	x12,-72(x8)
   11144:	fc043583          	ld	x11,-64(x8)
   11148:	000287b7          	lui	x15,0x28
   1114c:	2f878513          	addi	x10,x15,760 # 282f8 <__clzdi2+0x336>
   11150:	0730b0ef          	jal	x1,1c9c2 <printf>
   11154:	557d                	c.li	x10,-1
   11156:	1ed0a0ef          	jal	x1,1bb42 <exit>
   1115a:	fe043423          	sd	x0,-24(x8)
   1115e:	a091                	c.j	111a2 <_ZL23tiled_matrix_vector_subPsPKsS1_mm+0x90>
   11160:	fe843703          	ld	x14,-24(x8)
   11164:	fb843783          	ld	x15,-72(x8)
   11168:	02f707b3          	mul	x15,x14,x15
   1116c:	0786                	c.slli	x15,0x1
   1116e:	fd843703          	ld	x14,-40(x8)
   11172:	00f70533          	add	x10,x14,x15
   11176:	fe843703          	ld	x14,-24(x8)
   1117a:	fb843783          	ld	x15,-72(x8)
   1117e:	02f707b3          	mul	x15,x14,x15
   11182:	0786                	c.slli	x15,0x1
   11184:	fd043703          	ld	x14,-48(x8)
   11188:	97ba                	c.add	x15,x14
   1118a:	fb843683          	ld	x13,-72(x8)
   1118e:	fc843603          	ld	x12,-56(x8)
   11192:	85be                	c.mv	x11,x15
   11194:	e5fff0ef          	jal	x1,10ff2 <_ZL16tiled_vector_subPsPKsS1_m>
   11198:	fe843783          	ld	x15,-24(x8)
   1119c:	0785                	c.addi	x15,1
   1119e:	fef43423          	sd	x15,-24(x8)
   111a2:	fe843703          	ld	x14,-24(x8)
   111a6:	fc043783          	ld	x15,-64(x8)
   111aa:	faf76be3          	bltu	x14,x15,11160 <_ZL23tiled_matrix_vector_subPsPKsS1_mm+0x4e>
   111ae:	0001                	c.addi	x0,0
   111b0:	0001                	c.addi	x0,0
   111b2:	60a6                	c.ldsp	x1,72(x2)
   111b4:	6406                	c.ldsp	x8,64(x2)
   111b6:	6161                	c.addi16sp	x2,80
   111b8:	8082                	c.jr	x1

00000000000111ba <_ZL21fit_vector_add_scalarPsPKssm>:
   111ba:	7179                	c.addi16sp	x2,-48
   111bc:	f406                	c.sdsp	x1,40(x2)
   111be:	f022                	c.sdsp	x8,32(x2)
   111c0:	1800                	c.addi4spn	x8,x2,48
   111c2:	fea43423          	sd	x10,-24(x8)
   111c6:	feb43023          	sd	x11,-32(x8)
   111ca:	87b2                	c.mv	x15,x12
   111cc:	fcd43823          	sd	x13,-48(x8)
   111d0:	fcf41f23          	sh	x15,-34(x8)
   111d4:	fd043703          	ld	x14,-48(x8)
   111d8:	02000793          	addi	x15,x0,32
   111dc:	02e7f263          	bgeu	x15,x14,11200 <_ZL21fit_vector_add_scalarPsPKssm+0x46>
   111e0:	000287b7          	lui	x15,0x28
   111e4:	1d078693          	addi	x13,x15,464 # 281d0 <__clzdi2+0x20e>
   111e8:	000287b7          	lui	x15,0x28
   111ec:	41878613          	addi	x12,x15,1048 # 28418 <__clzdi2+0x456>
   111f0:	0a300593          	addi	x11,x0,163
   111f4:	000287b7          	lui	x15,0x28
   111f8:	0c878513          	addi	x10,x15,200 # 280c8 <__clzdi2+0x106>
   111fc:	0f30a0ef          	jal	x1,1baee <__assert_func>
   11200:	fd043783          	ld	x15,-48(x8)
   11204:	18f7b00b          	config.fiona	x0,x15,x15
   11208:	fe043783          	ld	x15,-32(x8)
   1120c:	1007a08b          	vld.fiona	x1,x15
   11210:	fde45783          	lhu	x15,-34(x8)
   11214:	06f0910b          	add.vs.fiona	x2,x1,x15
   11218:	fe843783          	ld	x15,-24(x8)
   1121c:	1237a00b          	vst.fiona	x15,x3
   11220:	0001                	c.addi	x0,0
   11222:	70a2                	c.ldsp	x1,40(x2)
   11224:	7402                	c.ldsp	x8,32(x2)
   11226:	6145                	c.addi16sp	x2,48
   11228:	8082                	c.jr	x1

000000000001122a <_ZL23tiled_vector_add_scalarPsPKssm>:
   1122a:	711d                	c.addi16sp	x2,-96
   1122c:	ec86                	c.sdsp	x1,88(x2)
   1122e:	e8a2                	c.sdsp	x8,80(x2)
   11230:	1080                	c.addi4spn	x8,x2,96
   11232:	faa43c23          	sd	x10,-72(x8)
   11236:	fab43823          	sd	x11,-80(x8)
   1123a:	87b2                	c.mv	x15,x12
   1123c:	fad43023          	sd	x13,-96(x8)
   11240:	faf41723          	sh	x15,-82(x8)
   11244:	fb843783          	ld	x15,-72(x8)
   11248:	e395                	c.bnez	x15,1126c <_ZL23tiled_vector_add_scalarPsPKssm+0x42>
   1124a:	000287b7          	lui	x15,0x28
   1124e:	46078513          	addi	x10,x15,1120 # 28460 <__clzdi2+0x49e>
   11252:	0e90b0ef          	jal	x1,1cb3a <puts>
   11256:	fa043583          	ld	x11,-96(x8)
   1125a:	000287b7          	lui	x15,0x28
   1125e:	28078513          	addi	x10,x15,640 # 28280 <__clzdi2+0x2be>
   11262:	7600b0ef          	jal	x1,1c9c2 <printf>
   11266:	557d                	c.li	x10,-1
   11268:	0db0a0ef          	jal	x1,1bb42 <exit>
   1126c:	fa043703          	ld	x14,-96(x8)
   11270:	02000793          	addi	x15,x0,32
   11274:	00e7ee63          	bltu	x15,x14,11290 <_ZL23tiled_vector_add_scalarPsPKssm+0x66>
   11278:	fae41783          	lh	x15,-82(x8)
   1127c:	fa043683          	ld	x13,-96(x8)
   11280:	863e                	c.mv	x12,x15
   11282:	fb043583          	ld	x11,-80(x8)
   11286:	fb843503          	ld	x10,-72(x8)
   1128a:	f31ff0ef          	jal	x1,111ba <_ZL21fit_vector_add_scalarPsPKssm>
   1128e:	a05d                	c.j	11334 <_ZL23tiled_vector_add_scalarPsPKssm+0x10a>
   11290:	fa043783          	ld	x15,-96(x8)
   11294:	8bfd                	c.andi	x15,31
   11296:	fef43023          	sd	x15,-32(x8)
   1129a:	fa043783          	ld	x15,-96(x8)
   1129e:	8395                	c.srli	x15,0x5
   112a0:	fcf43c23          	sd	x15,-40(x8)
   112a4:	fe043423          	sd	x0,-24(x8)
   112a8:	a081                	c.j	112e8 <_ZL23tiled_vector_add_scalarPsPKssm+0xbe>
   112aa:	fe843783          	ld	x15,-24(x8)
   112ae:	0796                	c.slli	x15,0x5
   112b0:	fcf43423          	sd	x15,-56(x8)
   112b4:	fc843783          	ld	x15,-56(x8)
   112b8:	0786                	c.slli	x15,0x1
   112ba:	fb843703          	ld	x14,-72(x8)
   112be:	00f70533          	add	x10,x14,x15
   112c2:	fc843783          	ld	x15,-56(x8)
   112c6:	0786                	c.slli	x15,0x1
   112c8:	fb043703          	ld	x14,-80(x8)
   112cc:	97ba                	c.add	x15,x14
   112ce:	fae41703          	lh	x14,-82(x8)
   112d2:	02000693          	addi	x13,x0,32
   112d6:	863a                	c.mv	x12,x14
   112d8:	85be                	c.mv	x11,x15
   112da:	ee1ff0ef          	jal	x1,111ba <_ZL21fit_vector_add_scalarPsPKssm>
   112de:	fe843783          	ld	x15,-24(x8)
   112e2:	0785                	c.addi	x15,1
   112e4:	fef43423          	sd	x15,-24(x8)
   112e8:	fe843703          	ld	x14,-24(x8)
   112ec:	fd843783          	ld	x15,-40(x8)
   112f0:	faf76de3          	bltu	x14,x15,112aa <_ZL23tiled_vector_add_scalarPsPKssm+0x80>
   112f4:	fe043783          	ld	x15,-32(x8)
   112f8:	cf95                	c.beqz	x15,11334 <_ZL23tiled_vector_add_scalarPsPKssm+0x10a>
   112fa:	fa043703          	ld	x14,-96(x8)
   112fe:	fe043783          	ld	x15,-32(x8)
   11302:	40f707b3          	sub	x15,x14,x15
   11306:	fcf43823          	sd	x15,-48(x8)
   1130a:	fd043783          	ld	x15,-48(x8)
   1130e:	0786                	c.slli	x15,0x1
   11310:	fb843703          	ld	x14,-72(x8)
   11314:	00f70533          	add	x10,x14,x15
   11318:	fd043783          	ld	x15,-48(x8)
   1131c:	0786                	c.slli	x15,0x1
   1131e:	fb043703          	ld	x14,-80(x8)
   11322:	97ba                	c.add	x15,x14
   11324:	fae41703          	lh	x14,-82(x8)
   11328:	fe043683          	ld	x13,-32(x8)
   1132c:	863a                	c.mv	x12,x14
   1132e:	85be                	c.mv	x11,x15
   11330:	e8bff0ef          	jal	x1,111ba <_ZL21fit_vector_add_scalarPsPKssm>
   11334:	0001                	c.addi	x0,0
   11336:	60e6                	c.ldsp	x1,88(x2)
   11338:	6446                	c.ldsp	x8,80(x2)
   1133a:	6125                	c.addi16sp	x2,96
   1133c:	8082                	c.jr	x1

000000000001133e <_ZL23tiled_matrix_add_scalarPsPKssmm>:
   1133e:	715d                	c.addi16sp	x2,-80
   11340:	e486                	c.sdsp	x1,72(x2)
   11342:	e0a2                	c.sdsp	x8,64(x2)
   11344:	0880                	c.addi4spn	x8,x2,80
   11346:	fca43c23          	sd	x10,-40(x8)
   1134a:	fcb43823          	sd	x11,-48(x8)
   1134e:	87b2                	c.mv	x15,x12
   11350:	fcd43023          	sd	x13,-64(x8)
   11354:	fae43c23          	sd	x14,-72(x8)
   11358:	fcf41723          	sh	x15,-50(x8)
   1135c:	fd843783          	ld	x15,-40(x8)
   11360:	e785                	c.bnez	x15,11388 <_ZL23tiled_matrix_add_scalarPsPKssmm+0x4a>
   11362:	000287b7          	lui	x15,0x28
   11366:	4b878513          	addi	x10,x15,1208 # 284b8 <__clzdi2+0x4f6>
   1136a:	7d00b0ef          	jal	x1,1cb3a <puts>
   1136e:	fb843603          	ld	x12,-72(x8)
   11372:	fc043583          	ld	x11,-64(x8)
   11376:	000287b7          	lui	x15,0x28
   1137a:	2f878513          	addi	x10,x15,760 # 282f8 <__clzdi2+0x336>
   1137e:	6440b0ef          	jal	x1,1c9c2 <printf>
   11382:	557d                	c.li	x10,-1
   11384:	7be0a0ef          	jal	x1,1bb42 <exit>
   11388:	fe043423          	sd	x0,-24(x8)
   1138c:	a099                	c.j	113d2 <_ZL23tiled_matrix_add_scalarPsPKssmm+0x94>
   1138e:	fe843703          	ld	x14,-24(x8)
   11392:	fb843783          	ld	x15,-72(x8)
   11396:	02f707b3          	mul	x15,x14,x15
   1139a:	0786                	c.slli	x15,0x1
   1139c:	fd843703          	ld	x14,-40(x8)
   113a0:	00f70533          	add	x10,x14,x15
   113a4:	fe843703          	ld	x14,-24(x8)
   113a8:	fb843783          	ld	x15,-72(x8)
   113ac:	02f707b3          	mul	x15,x14,x15
   113b0:	0786                	c.slli	x15,0x1
   113b2:	fd043703          	ld	x14,-48(x8)
   113b6:	97ba                	c.add	x15,x14
   113b8:	fce41703          	lh	x14,-50(x8)
   113bc:	fb843683          	ld	x13,-72(x8)
   113c0:	863a                	c.mv	x12,x14
   113c2:	85be                	c.mv	x11,x15
   113c4:	e67ff0ef          	jal	x1,1122a <_ZL23tiled_vector_add_scalarPsPKssm>
   113c8:	fe843783          	ld	x15,-24(x8)
   113cc:	0785                	c.addi	x15,1
   113ce:	fef43423          	sd	x15,-24(x8)
   113d2:	fe843703          	ld	x14,-24(x8)
   113d6:	fc043783          	ld	x15,-64(x8)
   113da:	faf76ae3          	bltu	x14,x15,1138e <_ZL23tiled_matrix_add_scalarPsPKssmm+0x50>
   113de:	0001                	c.addi	x0,0
   113e0:	0001                	c.addi	x0,0
   113e2:	60a6                	c.ldsp	x1,72(x2)
   113e4:	6406                	c.ldsp	x8,64(x2)
   113e6:	6161                	c.addi16sp	x2,80
   113e8:	8082                	c.jr	x1

00000000000113ea <_ZL21fit_vector_sub_scalarPsPKssm>:
   113ea:	7179                	c.addi16sp	x2,-48
   113ec:	f406                	c.sdsp	x1,40(x2)
   113ee:	f022                	c.sdsp	x8,32(x2)
   113f0:	1800                	c.addi4spn	x8,x2,48
   113f2:	fea43423          	sd	x10,-24(x8)
   113f6:	feb43023          	sd	x11,-32(x8)
   113fa:	87b2                	c.mv	x15,x12
   113fc:	fcd43823          	sd	x13,-48(x8)
   11400:	fcf41f23          	sh	x15,-34(x8)
   11404:	fd043703          	ld	x14,-48(x8)
   11408:	02000793          	addi	x15,x0,32
   1140c:	02e7f263          	bgeu	x15,x14,11430 <_ZL21fit_vector_sub_scalarPsPKssm+0x46>
   11410:	000287b7          	lui	x15,0x28
   11414:	1d078693          	addi	x13,x15,464 # 281d0 <__clzdi2+0x20e>
   11418:	000287b7          	lui	x15,0x28
   1141c:	51078613          	addi	x12,x15,1296 # 28510 <__clzdi2+0x54e>
   11420:	0d200593          	addi	x11,x0,210
   11424:	000287b7          	lui	x15,0x28
   11428:	0c878513          	addi	x10,x15,200 # 280c8 <__clzdi2+0x106>
   1142c:	6c20a0ef          	jal	x1,1baee <__assert_func>
   11430:	fd043783          	ld	x15,-48(x8)
   11434:	18f7b00b          	config.fiona	x0,x15,x15
   11438:	fe043783          	ld	x15,-32(x8)
   1143c:	1007a08b          	vld.fiona	x1,x15
   11440:	fde45783          	lhu	x15,-34(x8)
   11444:	08f0910b          	sub.vs.fiona	x2,x1,x15
   11448:	fe843783          	ld	x15,-24(x8)
   1144c:	1237a00b          	vst.fiona	x15,x3
   11450:	0001                	c.addi	x0,0
   11452:	70a2                	c.ldsp	x1,40(x2)
   11454:	7402                	c.ldsp	x8,32(x2)
   11456:	6145                	c.addi16sp	x2,48
   11458:	8082                	c.jr	x1

000000000001145a <_ZL23tiled_vector_sub_scalarPsPKssm>:
   1145a:	711d                	c.addi16sp	x2,-96
   1145c:	ec86                	c.sdsp	x1,88(x2)
   1145e:	e8a2                	c.sdsp	x8,80(x2)
   11460:	1080                	c.addi4spn	x8,x2,96
   11462:	faa43c23          	sd	x10,-72(x8)
   11466:	fab43823          	sd	x11,-80(x8)
   1146a:	87b2                	c.mv	x15,x12
   1146c:	fad43023          	sd	x13,-96(x8)
   11470:	faf41723          	sh	x15,-82(x8)
   11474:	fb843783          	ld	x15,-72(x8)
   11478:	e395                	c.bnez	x15,1149c <_ZL23tiled_vector_sub_scalarPsPKssm+0x42>
   1147a:	000287b7          	lui	x15,0x28
   1147e:	55878513          	addi	x10,x15,1368 # 28558 <__clzdi2+0x596>
   11482:	6b80b0ef          	jal	x1,1cb3a <puts>
   11486:	fa043583          	ld	x11,-96(x8)
   1148a:	000287b7          	lui	x15,0x28
   1148e:	28078513          	addi	x10,x15,640 # 28280 <__clzdi2+0x2be>
   11492:	5300b0ef          	jal	x1,1c9c2 <printf>
   11496:	557d                	c.li	x10,-1
   11498:	6aa0a0ef          	jal	x1,1bb42 <exit>
   1149c:	fa043703          	ld	x14,-96(x8)
   114a0:	02000793          	addi	x15,x0,32
   114a4:	00e7ee63          	bltu	x15,x14,114c0 <_ZL23tiled_vector_sub_scalarPsPKssm+0x66>
   114a8:	fae41783          	lh	x15,-82(x8)
   114ac:	fa043683          	ld	x13,-96(x8)
   114b0:	863e                	c.mv	x12,x15
   114b2:	fb043583          	ld	x11,-80(x8)
   114b6:	fb843503          	ld	x10,-72(x8)
   114ba:	f31ff0ef          	jal	x1,113ea <_ZL21fit_vector_sub_scalarPsPKssm>
   114be:	a05d                	c.j	11564 <_ZL23tiled_vector_sub_scalarPsPKssm+0x10a>
   114c0:	fa043783          	ld	x15,-96(x8)
   114c4:	8bfd                	c.andi	x15,31
   114c6:	fef43023          	sd	x15,-32(x8)
   114ca:	fa043783          	ld	x15,-96(x8)
   114ce:	8395                	c.srli	x15,0x5
   114d0:	fcf43c23          	sd	x15,-40(x8)
   114d4:	fe043423          	sd	x0,-24(x8)
   114d8:	a081                	c.j	11518 <_ZL23tiled_vector_sub_scalarPsPKssm+0xbe>
   114da:	fe843783          	ld	x15,-24(x8)
   114de:	0796                	c.slli	x15,0x5
   114e0:	fcf43423          	sd	x15,-56(x8)
   114e4:	fc843783          	ld	x15,-56(x8)
   114e8:	0786                	c.slli	x15,0x1
   114ea:	fb843703          	ld	x14,-72(x8)
   114ee:	00f70533          	add	x10,x14,x15
   114f2:	fc843783          	ld	x15,-56(x8)
   114f6:	0786                	c.slli	x15,0x1
   114f8:	fb043703          	ld	x14,-80(x8)
   114fc:	97ba                	c.add	x15,x14
   114fe:	fae41703          	lh	x14,-82(x8)
   11502:	02000693          	addi	x13,x0,32
   11506:	863a                	c.mv	x12,x14
   11508:	85be                	c.mv	x11,x15
   1150a:	ee1ff0ef          	jal	x1,113ea <_ZL21fit_vector_sub_scalarPsPKssm>
   1150e:	fe843783          	ld	x15,-24(x8)
   11512:	0785                	c.addi	x15,1
   11514:	fef43423          	sd	x15,-24(x8)
   11518:	fe843703          	ld	x14,-24(x8)
   1151c:	fd843783          	ld	x15,-40(x8)
   11520:	faf76de3          	bltu	x14,x15,114da <_ZL23tiled_vector_sub_scalarPsPKssm+0x80>
   11524:	fe043783          	ld	x15,-32(x8)
   11528:	cf95                	c.beqz	x15,11564 <_ZL23tiled_vector_sub_scalarPsPKssm+0x10a>
   1152a:	fa043703          	ld	x14,-96(x8)
   1152e:	fe043783          	ld	x15,-32(x8)
   11532:	40f707b3          	sub	x15,x14,x15
   11536:	fcf43823          	sd	x15,-48(x8)
   1153a:	fd043783          	ld	x15,-48(x8)
   1153e:	0786                	c.slli	x15,0x1
   11540:	fb843703          	ld	x14,-72(x8)
   11544:	00f70533          	add	x10,x14,x15
   11548:	fd043783          	ld	x15,-48(x8)
   1154c:	0786                	c.slli	x15,0x1
   1154e:	fb043703          	ld	x14,-80(x8)
   11552:	97ba                	c.add	x15,x14
   11554:	fae41703          	lh	x14,-82(x8)
   11558:	fe043683          	ld	x13,-32(x8)
   1155c:	863a                	c.mv	x12,x14
   1155e:	85be                	c.mv	x11,x15
   11560:	e8bff0ef          	jal	x1,113ea <_ZL21fit_vector_sub_scalarPsPKssm>
   11564:	0001                	c.addi	x0,0
   11566:	60e6                	c.ldsp	x1,88(x2)
   11568:	6446                	c.ldsp	x8,80(x2)
   1156a:	6125                	c.addi16sp	x2,96
   1156c:	8082                	c.jr	x1

000000000001156e <_ZL23tiled_matrix_sub_scalarPsPKssmm>:
   1156e:	715d                	c.addi16sp	x2,-80
   11570:	e486                	c.sdsp	x1,72(x2)
   11572:	e0a2                	c.sdsp	x8,64(x2)
   11574:	0880                	c.addi4spn	x8,x2,80
   11576:	fca43c23          	sd	x10,-40(x8)
   1157a:	fcb43823          	sd	x11,-48(x8)
   1157e:	87b2                	c.mv	x15,x12
   11580:	fcd43023          	sd	x13,-64(x8)
   11584:	fae43c23          	sd	x14,-72(x8)
   11588:	fcf41723          	sh	x15,-50(x8)
   1158c:	fd843783          	ld	x15,-40(x8)
   11590:	e785                	c.bnez	x15,115b8 <_ZL23tiled_matrix_sub_scalarPsPKssmm+0x4a>
   11592:	000287b7          	lui	x15,0x28
   11596:	5b078513          	addi	x10,x15,1456 # 285b0 <__clzdi2+0x5ee>
   1159a:	5a00b0ef          	jal	x1,1cb3a <puts>
   1159e:	fb843603          	ld	x12,-72(x8)
   115a2:	fc043583          	ld	x11,-64(x8)
   115a6:	000287b7          	lui	x15,0x28
   115aa:	2f878513          	addi	x10,x15,760 # 282f8 <__clzdi2+0x336>
   115ae:	4140b0ef          	jal	x1,1c9c2 <printf>
   115b2:	557d                	c.li	x10,-1
   115b4:	58e0a0ef          	jal	x1,1bb42 <exit>
   115b8:	fe043423          	sd	x0,-24(x8)
   115bc:	a099                	c.j	11602 <_ZL23tiled_matrix_sub_scalarPsPKssmm+0x94>
   115be:	fe843703          	ld	x14,-24(x8)
   115c2:	fb843783          	ld	x15,-72(x8)
   115c6:	02f707b3          	mul	x15,x14,x15
   115ca:	0786                	c.slli	x15,0x1
   115cc:	fd843703          	ld	x14,-40(x8)
   115d0:	00f70533          	add	x10,x14,x15
   115d4:	fe843703          	ld	x14,-24(x8)
   115d8:	fb843783          	ld	x15,-72(x8)
   115dc:	02f707b3          	mul	x15,x14,x15
   115e0:	0786                	c.slli	x15,0x1
   115e2:	fd043703          	ld	x14,-48(x8)
   115e6:	97ba                	c.add	x15,x14
   115e8:	fce41703          	lh	x14,-50(x8)
   115ec:	fb843683          	ld	x13,-72(x8)
   115f0:	863a                	c.mv	x12,x14
   115f2:	85be                	c.mv	x11,x15
   115f4:	e67ff0ef          	jal	x1,1145a <_ZL23tiled_vector_sub_scalarPsPKssm>
   115f8:	fe843783          	ld	x15,-24(x8)
   115fc:	0785                	c.addi	x15,1
   115fe:	fef43423          	sd	x15,-24(x8)
   11602:	fe843703          	ld	x14,-24(x8)
   11606:	fc043783          	ld	x15,-64(x8)
   1160a:	faf76ae3          	bltu	x14,x15,115be <_ZL23tiled_matrix_sub_scalarPsPKssmm+0x50>
   1160e:	0001                	c.addi	x0,0
   11610:	0001                	c.addi	x0,0
   11612:	60a6                	c.ldsp	x1,72(x2)
   11614:	6406                	c.ldsp	x8,64(x2)
   11616:	6161                	c.addi16sp	x2,80
   11618:	8082                	c.jr	x1

000000000001161a <_ZL21fit_vector_mul_scalarPsPKssm>:
   1161a:	7179                	c.addi16sp	x2,-48
   1161c:	f406                	c.sdsp	x1,40(x2)
   1161e:	f022                	c.sdsp	x8,32(x2)
   11620:	1800                	c.addi4spn	x8,x2,48
   11622:	fea43423          	sd	x10,-24(x8)
   11626:	feb43023          	sd	x11,-32(x8)
   1162a:	87b2                	c.mv	x15,x12
   1162c:	fcd43823          	sd	x13,-48(x8)
   11630:	fcf41f23          	sh	x15,-34(x8)
   11634:	fd043703          	ld	x14,-48(x8)
   11638:	02000793          	addi	x15,x0,32
   1163c:	02e7f263          	bgeu	x15,x14,11660 <_ZL21fit_vector_mul_scalarPsPKssm+0x46>
   11640:	000287b7          	lui	x15,0x28
   11644:	1d078693          	addi	x13,x15,464 # 281d0 <__clzdi2+0x20e>
   11648:	000287b7          	lui	x15,0x28
   1164c:	60878613          	addi	x12,x15,1544 # 28608 <__clzdi2+0x646>
   11650:	10100593          	addi	x11,x0,257
   11654:	000287b7          	lui	x15,0x28
   11658:	0c878513          	addi	x10,x15,200 # 280c8 <__clzdi2+0x106>
   1165c:	4920a0ef          	jal	x1,1baee <__assert_func>
   11660:	fd043783          	ld	x15,-48(x8)
   11664:	18f7b00b          	config.fiona	x0,x15,x15
   11668:	fe043783          	ld	x15,-32(x8)
   1166c:	1007a08b          	vld.fiona	x1,x15
   11670:	fde45783          	lhu	x15,-34(x8)
   11674:	0af0910b          	mul.vs.fiona	x2,x1,x15
   11678:	fe843783          	ld	x15,-24(x8)
   1167c:	1237a00b          	vst.fiona	x15,x3
   11680:	0001                	c.addi	x0,0
   11682:	70a2                	c.ldsp	x1,40(x2)
   11684:	7402                	c.ldsp	x8,32(x2)
   11686:	6145                	c.addi16sp	x2,48
   11688:	8082                	c.jr	x1

000000000001168a <_ZL23tiled_vector_mul_scalarPsPKssm>:
   1168a:	711d                	c.addi16sp	x2,-96
   1168c:	ec86                	c.sdsp	x1,88(x2)
   1168e:	e8a2                	c.sdsp	x8,80(x2)
   11690:	1080                	c.addi4spn	x8,x2,96
   11692:	faa43c23          	sd	x10,-72(x8)
   11696:	fab43823          	sd	x11,-80(x8)
   1169a:	87b2                	c.mv	x15,x12
   1169c:	fad43023          	sd	x13,-96(x8)
   116a0:	faf41723          	sh	x15,-82(x8)
   116a4:	fb843783          	ld	x15,-72(x8)
   116a8:	e395                	c.bnez	x15,116cc <_ZL23tiled_vector_mul_scalarPsPKssm+0x42>
   116aa:	000287b7          	lui	x15,0x28
   116ae:	65078513          	addi	x10,x15,1616 # 28650 <__clzdi2+0x68e>
   116b2:	4880b0ef          	jal	x1,1cb3a <puts>
   116b6:	fa043583          	ld	x11,-96(x8)
   116ba:	000287b7          	lui	x15,0x28
   116be:	28078513          	addi	x10,x15,640 # 28280 <__clzdi2+0x2be>
   116c2:	3000b0ef          	jal	x1,1c9c2 <printf>
   116c6:	557d                	c.li	x10,-1
   116c8:	47a0a0ef          	jal	x1,1bb42 <exit>
   116cc:	fa043703          	ld	x14,-96(x8)
   116d0:	02000793          	addi	x15,x0,32
   116d4:	00e7ee63          	bltu	x15,x14,116f0 <_ZL23tiled_vector_mul_scalarPsPKssm+0x66>
   116d8:	fae41783          	lh	x15,-82(x8)
   116dc:	fa043683          	ld	x13,-96(x8)
   116e0:	863e                	c.mv	x12,x15
   116e2:	fb043583          	ld	x11,-80(x8)
   116e6:	fb843503          	ld	x10,-72(x8)
   116ea:	f31ff0ef          	jal	x1,1161a <_ZL21fit_vector_mul_scalarPsPKssm>
   116ee:	a05d                	c.j	11794 <_ZL23tiled_vector_mul_scalarPsPKssm+0x10a>
   116f0:	fa043783          	ld	x15,-96(x8)
   116f4:	8bfd                	c.andi	x15,31
   116f6:	fef43023          	sd	x15,-32(x8)
   116fa:	fa043783          	ld	x15,-96(x8)
   116fe:	8395                	c.srli	x15,0x5
   11700:	fcf43c23          	sd	x15,-40(x8)
   11704:	fe043423          	sd	x0,-24(x8)
   11708:	a081                	c.j	11748 <_ZL23tiled_vector_mul_scalarPsPKssm+0xbe>
   1170a:	fe843783          	ld	x15,-24(x8)
   1170e:	0796                	c.slli	x15,0x5
   11710:	fcf43423          	sd	x15,-56(x8)
   11714:	fc843783          	ld	x15,-56(x8)
   11718:	0786                	c.slli	x15,0x1
   1171a:	fb843703          	ld	x14,-72(x8)
   1171e:	00f70533          	add	x10,x14,x15
   11722:	fc843783          	ld	x15,-56(x8)
   11726:	0786                	c.slli	x15,0x1
   11728:	fb043703          	ld	x14,-80(x8)
   1172c:	97ba                	c.add	x15,x14
   1172e:	fae41703          	lh	x14,-82(x8)
   11732:	02000693          	addi	x13,x0,32
   11736:	863a                	c.mv	x12,x14
   11738:	85be                	c.mv	x11,x15
   1173a:	ee1ff0ef          	jal	x1,1161a <_ZL21fit_vector_mul_scalarPsPKssm>
   1173e:	fe843783          	ld	x15,-24(x8)
   11742:	0785                	c.addi	x15,1
   11744:	fef43423          	sd	x15,-24(x8)
   11748:	fe843703          	ld	x14,-24(x8)
   1174c:	fd843783          	ld	x15,-40(x8)
   11750:	faf76de3          	bltu	x14,x15,1170a <_ZL23tiled_vector_mul_scalarPsPKssm+0x80>
   11754:	fe043783          	ld	x15,-32(x8)
   11758:	cf95                	c.beqz	x15,11794 <_ZL23tiled_vector_mul_scalarPsPKssm+0x10a>
   1175a:	fa043703          	ld	x14,-96(x8)
   1175e:	fe043783          	ld	x15,-32(x8)
   11762:	40f707b3          	sub	x15,x14,x15
   11766:	fcf43823          	sd	x15,-48(x8)
   1176a:	fd043783          	ld	x15,-48(x8)
   1176e:	0786                	c.slli	x15,0x1
   11770:	fb843703          	ld	x14,-72(x8)
   11774:	00f70533          	add	x10,x14,x15
   11778:	fd043783          	ld	x15,-48(x8)
   1177c:	0786                	c.slli	x15,0x1
   1177e:	fb043703          	ld	x14,-80(x8)
   11782:	97ba                	c.add	x15,x14
   11784:	fae41703          	lh	x14,-82(x8)
   11788:	fe043683          	ld	x13,-32(x8)
   1178c:	863a                	c.mv	x12,x14
   1178e:	85be                	c.mv	x11,x15
   11790:	e8bff0ef          	jal	x1,1161a <_ZL21fit_vector_mul_scalarPsPKssm>
   11794:	0001                	c.addi	x0,0
   11796:	60e6                	c.ldsp	x1,88(x2)
   11798:	6446                	c.ldsp	x8,80(x2)
   1179a:	6125                	c.addi16sp	x2,96
   1179c:	8082                	c.jr	x1

000000000001179e <_ZL23tiled_matrix_mul_scalarPsPKssmm>:
   1179e:	715d                	c.addi16sp	x2,-80
   117a0:	e486                	c.sdsp	x1,72(x2)
   117a2:	e0a2                	c.sdsp	x8,64(x2)
   117a4:	0880                	c.addi4spn	x8,x2,80
   117a6:	fca43c23          	sd	x10,-40(x8)
   117aa:	fcb43823          	sd	x11,-48(x8)
   117ae:	87b2                	c.mv	x15,x12
   117b0:	fcd43023          	sd	x13,-64(x8)
   117b4:	fae43c23          	sd	x14,-72(x8)
   117b8:	fcf41723          	sh	x15,-50(x8)
   117bc:	fd843783          	ld	x15,-40(x8)
   117c0:	e785                	c.bnez	x15,117e8 <_ZL23tiled_matrix_mul_scalarPsPKssmm+0x4a>
   117c2:	000287b7          	lui	x15,0x28
   117c6:	6a878513          	addi	x10,x15,1704 # 286a8 <__clzdi2+0x6e6>
   117ca:	3700b0ef          	jal	x1,1cb3a <puts>
   117ce:	fb843603          	ld	x12,-72(x8)
   117d2:	fc043583          	ld	x11,-64(x8)
   117d6:	000287b7          	lui	x15,0x28
   117da:	2f878513          	addi	x10,x15,760 # 282f8 <__clzdi2+0x336>
   117de:	1e40b0ef          	jal	x1,1c9c2 <printf>
   117e2:	557d                	c.li	x10,-1
   117e4:	35e0a0ef          	jal	x1,1bb42 <exit>
   117e8:	fe043423          	sd	x0,-24(x8)
   117ec:	a099                	c.j	11832 <_ZL23tiled_matrix_mul_scalarPsPKssmm+0x94>
   117ee:	fe843703          	ld	x14,-24(x8)
   117f2:	fb843783          	ld	x15,-72(x8)
   117f6:	02f707b3          	mul	x15,x14,x15
   117fa:	0786                	c.slli	x15,0x1
   117fc:	fd843703          	ld	x14,-40(x8)
   11800:	00f70533          	add	x10,x14,x15
   11804:	fe843703          	ld	x14,-24(x8)
   11808:	fb843783          	ld	x15,-72(x8)
   1180c:	02f707b3          	mul	x15,x14,x15
   11810:	0786                	c.slli	x15,0x1
   11812:	fd043703          	ld	x14,-48(x8)
   11816:	97ba                	c.add	x15,x14
   11818:	fce41703          	lh	x14,-50(x8)
   1181c:	fb843683          	ld	x13,-72(x8)
   11820:	863a                	c.mv	x12,x14
   11822:	85be                	c.mv	x11,x15
   11824:	e67ff0ef          	jal	x1,1168a <_ZL23tiled_vector_mul_scalarPsPKssm>
   11828:	fe843783          	ld	x15,-24(x8)
   1182c:	0785                	c.addi	x15,1
   1182e:	fef43423          	sd	x15,-24(x8)
   11832:	fe843703          	ld	x14,-24(x8)
   11836:	fc043783          	ld	x15,-64(x8)
   1183a:	faf76ae3          	bltu	x14,x15,117ee <_ZL23tiled_matrix_mul_scalarPsPKssmm+0x50>
   1183e:	0001                	c.addi	x0,0
   11840:	0001                	c.addi	x0,0
   11842:	60a6                	c.ldsp	x1,72(x2)
   11844:	6406                	c.ldsp	x8,64(x2)
   11846:	6161                	c.addi16sp	x2,80
   11848:	8082                	c.jr	x1

000000000001184a <_ZL21fit_vector_div_scalarPsPKssm>:
   1184a:	7179                	c.addi16sp	x2,-48
   1184c:	f406                	c.sdsp	x1,40(x2)
   1184e:	f022                	c.sdsp	x8,32(x2)
   11850:	1800                	c.addi4spn	x8,x2,48
   11852:	fea43423          	sd	x10,-24(x8)
   11856:	feb43023          	sd	x11,-32(x8)
   1185a:	87b2                	c.mv	x15,x12
   1185c:	fcd43823          	sd	x13,-48(x8)
   11860:	fcf41f23          	sh	x15,-34(x8)
   11864:	fd043703          	ld	x14,-48(x8)
   11868:	02000793          	addi	x15,x0,32
   1186c:	02e7f263          	bgeu	x15,x14,11890 <_ZL21fit_vector_div_scalarPsPKssm+0x46>
   11870:	000287b7          	lui	x15,0x28
   11874:	1d078693          	addi	x13,x15,464 # 281d0 <__clzdi2+0x20e>
   11878:	000287b7          	lui	x15,0x28
   1187c:	70078613          	addi	x12,x15,1792 # 28700 <__clzdi2+0x73e>
   11880:	13000593          	addi	x11,x0,304
   11884:	000287b7          	lui	x15,0x28
   11888:	0c878513          	addi	x10,x15,200 # 280c8 <__clzdi2+0x106>
   1188c:	2620a0ef          	jal	x1,1baee <__assert_func>
   11890:	fd043783          	ld	x15,-48(x8)
   11894:	18f7b00b          	config.fiona	x0,x15,x15
   11898:	fe043783          	ld	x15,-32(x8)
   1189c:	1007a08b          	vld.fiona	x1,x15
   118a0:	fde45783          	lhu	x15,-34(x8)
   118a4:	0cf0910b          	div.vs.fiona	x2,x1,x15
   118a8:	fe843783          	ld	x15,-24(x8)
   118ac:	1237a00b          	vst.fiona	x15,x3
   118b0:	0001                	c.addi	x0,0
   118b2:	70a2                	c.ldsp	x1,40(x2)
   118b4:	7402                	c.ldsp	x8,32(x2)
   118b6:	6145                	c.addi16sp	x2,48
   118b8:	8082                	c.jr	x1

00000000000118ba <_ZL23tiled_vector_div_scalarPsPKssm>:
   118ba:	711d                	c.addi16sp	x2,-96
   118bc:	ec86                	c.sdsp	x1,88(x2)
   118be:	e8a2                	c.sdsp	x8,80(x2)
   118c0:	1080                	c.addi4spn	x8,x2,96
   118c2:	faa43c23          	sd	x10,-72(x8)
   118c6:	fab43823          	sd	x11,-80(x8)
   118ca:	87b2                	c.mv	x15,x12
   118cc:	fad43023          	sd	x13,-96(x8)
   118d0:	faf41723          	sh	x15,-82(x8)
   118d4:	fb843783          	ld	x15,-72(x8)
   118d8:	e395                	c.bnez	x15,118fc <_ZL23tiled_vector_div_scalarPsPKssm+0x42>
   118da:	000287b7          	lui	x15,0x28
   118de:	74878513          	addi	x10,x15,1864 # 28748 <__clzdi2+0x786>
   118e2:	2580b0ef          	jal	x1,1cb3a <puts>
   118e6:	fa043583          	ld	x11,-96(x8)
   118ea:	000287b7          	lui	x15,0x28
   118ee:	28078513          	addi	x10,x15,640 # 28280 <__clzdi2+0x2be>
   118f2:	0d00b0ef          	jal	x1,1c9c2 <printf>
   118f6:	557d                	c.li	x10,-1
   118f8:	24a0a0ef          	jal	x1,1bb42 <exit>
   118fc:	fa043703          	ld	x14,-96(x8)
   11900:	02000793          	addi	x15,x0,32
   11904:	00e7ee63          	bltu	x15,x14,11920 <_ZL23tiled_vector_div_scalarPsPKssm+0x66>
   11908:	fae41783          	lh	x15,-82(x8)
   1190c:	fa043683          	ld	x13,-96(x8)
   11910:	863e                	c.mv	x12,x15
   11912:	fb043583          	ld	x11,-80(x8)
   11916:	fb843503          	ld	x10,-72(x8)
   1191a:	f31ff0ef          	jal	x1,1184a <_ZL21fit_vector_div_scalarPsPKssm>
   1191e:	a05d                	c.j	119c4 <_ZL23tiled_vector_div_scalarPsPKssm+0x10a>
   11920:	fa043783          	ld	x15,-96(x8)
   11924:	8bfd                	c.andi	x15,31
   11926:	fef43023          	sd	x15,-32(x8)
   1192a:	fa043783          	ld	x15,-96(x8)
   1192e:	8395                	c.srli	x15,0x5
   11930:	fcf43c23          	sd	x15,-40(x8)
   11934:	fe043423          	sd	x0,-24(x8)
   11938:	a081                	c.j	11978 <_ZL23tiled_vector_div_scalarPsPKssm+0xbe>
   1193a:	fe843783          	ld	x15,-24(x8)
   1193e:	0796                	c.slli	x15,0x5
   11940:	fcf43423          	sd	x15,-56(x8)
   11944:	fc843783          	ld	x15,-56(x8)
   11948:	0786                	c.slli	x15,0x1
   1194a:	fb843703          	ld	x14,-72(x8)
   1194e:	00f70533          	add	x10,x14,x15
   11952:	fc843783          	ld	x15,-56(x8)
   11956:	0786                	c.slli	x15,0x1
   11958:	fb043703          	ld	x14,-80(x8)
   1195c:	97ba                	c.add	x15,x14
   1195e:	fae41703          	lh	x14,-82(x8)
   11962:	02000693          	addi	x13,x0,32
   11966:	863a                	c.mv	x12,x14
   11968:	85be                	c.mv	x11,x15
   1196a:	ee1ff0ef          	jal	x1,1184a <_ZL21fit_vector_div_scalarPsPKssm>
   1196e:	fe843783          	ld	x15,-24(x8)
   11972:	0785                	c.addi	x15,1
   11974:	fef43423          	sd	x15,-24(x8)
   11978:	fe843703          	ld	x14,-24(x8)
   1197c:	fd843783          	ld	x15,-40(x8)
   11980:	faf76de3          	bltu	x14,x15,1193a <_ZL23tiled_vector_div_scalarPsPKssm+0x80>
   11984:	fe043783          	ld	x15,-32(x8)
   11988:	cf95                	c.beqz	x15,119c4 <_ZL23tiled_vector_div_scalarPsPKssm+0x10a>
   1198a:	fa043703          	ld	x14,-96(x8)
   1198e:	fe043783          	ld	x15,-32(x8)
   11992:	40f707b3          	sub	x15,x14,x15
   11996:	fcf43823          	sd	x15,-48(x8)
   1199a:	fd043783          	ld	x15,-48(x8)
   1199e:	0786                	c.slli	x15,0x1
   119a0:	fb843703          	ld	x14,-72(x8)
   119a4:	00f70533          	add	x10,x14,x15
   119a8:	fd043783          	ld	x15,-48(x8)
   119ac:	0786                	c.slli	x15,0x1
   119ae:	fb043703          	ld	x14,-80(x8)
   119b2:	97ba                	c.add	x15,x14
   119b4:	fae41703          	lh	x14,-82(x8)
   119b8:	fe043683          	ld	x13,-32(x8)
   119bc:	863a                	c.mv	x12,x14
   119be:	85be                	c.mv	x11,x15
   119c0:	e8bff0ef          	jal	x1,1184a <_ZL21fit_vector_div_scalarPsPKssm>
   119c4:	0001                	c.addi	x0,0
   119c6:	60e6                	c.ldsp	x1,88(x2)
   119c8:	6446                	c.ldsp	x8,80(x2)
   119ca:	6125                	c.addi16sp	x2,96
   119cc:	8082                	c.jr	x1

00000000000119ce <_ZL23tiled_matrix_div_scalarPsPKssmm>:
   119ce:	715d                	c.addi16sp	x2,-80
   119d0:	e486                	c.sdsp	x1,72(x2)
   119d2:	e0a2                	c.sdsp	x8,64(x2)
   119d4:	0880                	c.addi4spn	x8,x2,80
   119d6:	fca43c23          	sd	x10,-40(x8)
   119da:	fcb43823          	sd	x11,-48(x8)
   119de:	87b2                	c.mv	x15,x12
   119e0:	fcd43023          	sd	x13,-64(x8)
   119e4:	fae43c23          	sd	x14,-72(x8)
   119e8:	fcf41723          	sh	x15,-50(x8)
   119ec:	fd843783          	ld	x15,-40(x8)
   119f0:	e785                	c.bnez	x15,11a18 <_ZL23tiled_matrix_div_scalarPsPKssmm+0x4a>
   119f2:	000287b7          	lui	x15,0x28
   119f6:	7a078513          	addi	x10,x15,1952 # 287a0 <__clzdi2+0x7de>
   119fa:	1400b0ef          	jal	x1,1cb3a <puts>
   119fe:	fb843603          	ld	x12,-72(x8)
   11a02:	fc043583          	ld	x11,-64(x8)
   11a06:	000287b7          	lui	x15,0x28
   11a0a:	2f878513          	addi	x10,x15,760 # 282f8 <__clzdi2+0x336>
   11a0e:	7b50a0ef          	jal	x1,1c9c2 <printf>
   11a12:	557d                	c.li	x10,-1
   11a14:	12e0a0ef          	jal	x1,1bb42 <exit>
   11a18:	fe043423          	sd	x0,-24(x8)
   11a1c:	a099                	c.j	11a62 <_ZL23tiled_matrix_div_scalarPsPKssmm+0x94>
   11a1e:	fe843703          	ld	x14,-24(x8)
   11a22:	fb843783          	ld	x15,-72(x8)
   11a26:	02f707b3          	mul	x15,x14,x15
   11a2a:	0786                	c.slli	x15,0x1
   11a2c:	fd843703          	ld	x14,-40(x8)
   11a30:	00f70533          	add	x10,x14,x15
   11a34:	fe843703          	ld	x14,-24(x8)
   11a38:	fb843783          	ld	x15,-72(x8)
   11a3c:	02f707b3          	mul	x15,x14,x15
   11a40:	0786                	c.slli	x15,0x1
   11a42:	fd043703          	ld	x14,-48(x8)
   11a46:	97ba                	c.add	x15,x14
   11a48:	fce41703          	lh	x14,-50(x8)
   11a4c:	fb843683          	ld	x13,-72(x8)
   11a50:	863a                	c.mv	x12,x14
   11a52:	85be                	c.mv	x11,x15
   11a54:	e67ff0ef          	jal	x1,118ba <_ZL23tiled_vector_div_scalarPsPKssm>
   11a58:	fe843783          	ld	x15,-24(x8)
   11a5c:	0785                	c.addi	x15,1
   11a5e:	fef43423          	sd	x15,-24(x8)
   11a62:	fe843703          	ld	x14,-24(x8)
   11a66:	fc043783          	ld	x15,-64(x8)
   11a6a:	faf76ae3          	bltu	x14,x15,11a1e <_ZL23tiled_matrix_div_scalarPsPKssmm+0x50>
   11a6e:	0001                	c.addi	x0,0
   11a70:	0001                	c.addi	x0,0
   11a72:	60a6                	c.ldsp	x1,72(x2)
   11a74:	6406                	c.ldsp	x8,64(x2)
   11a76:	6161                	c.addi16sp	x2,80
   11a78:	8082                	c.jr	x1

0000000000011a7a <_ZL15fit_vector_reluPsPKsm>:
   11a7a:	7179                	c.addi16sp	x2,-48
   11a7c:	f406                	c.sdsp	x1,40(x2)
   11a7e:	f022                	c.sdsp	x8,32(x2)
   11a80:	1800                	c.addi4spn	x8,x2,48
   11a82:	fea43423          	sd	x10,-24(x8)
   11a86:	feb43023          	sd	x11,-32(x8)
   11a8a:	fcc43c23          	sd	x12,-40(x8)
   11a8e:	fd843703          	ld	x14,-40(x8)
   11a92:	02000793          	addi	x15,x0,32
   11a96:	02e7f263          	bgeu	x15,x14,11aba <_ZL15fit_vector_reluPsPKsm+0x40>
   11a9a:	000287b7          	lui	x15,0x28
   11a9e:	1d078693          	addi	x13,x15,464 # 281d0 <__clzdi2+0x20e>
   11aa2:	000287b7          	lui	x15,0x28
   11aa6:	7f878613          	addi	x12,x15,2040 # 287f8 <__clzdi2+0x836>
   11aaa:	16000593          	addi	x11,x0,352
   11aae:	000287b7          	lui	x15,0x28
   11ab2:	0c878513          	addi	x10,x15,200 # 280c8 <__clzdi2+0x106>
   11ab6:	0380a0ef          	jal	x1,1baee <__assert_func>
   11aba:	fd843783          	ld	x15,-40(x8)
   11abe:	18f7b00b          	config.fiona	x0,x15,x15
   11ac2:	fe043783          	ld	x15,-32(x8)
   11ac6:	1007a08b          	vld.fiona	x1,x15
   11aca:	0e00810b          	vrelu.fiona	x2,x1
   11ace:	fe843783          	ld	x15,-24(x8)
   11ad2:	1227a00b          	vst.fiona	x15,x2
   11ad6:	0001                	c.addi	x0,0
   11ad8:	70a2                	c.ldsp	x1,40(x2)
   11ada:	7402                	c.ldsp	x8,32(x2)
   11adc:	6145                	c.addi16sp	x2,48
   11ade:	8082                	c.jr	x1

0000000000011ae0 <_ZL17tiled_vector_reluPsPKsm>:
   11ae0:	711d                	c.addi16sp	x2,-96
   11ae2:	ec86                	c.sdsp	x1,88(x2)
   11ae4:	e8a2                	c.sdsp	x8,80(x2)
   11ae6:	1080                	c.addi4spn	x8,x2,96
   11ae8:	faa43c23          	sd	x10,-72(x8)
   11aec:	fab43823          	sd	x11,-80(x8)
   11af0:	fac43423          	sd	x12,-88(x8)
   11af4:	fb843783          	ld	x15,-72(x8)
   11af8:	e395                	c.bnez	x15,11b1c <_ZL17tiled_vector_reluPsPKsm+0x3c>
   11afa:	000297b7          	lui	x15,0x29
   11afe:	83078513          	addi	x10,x15,-2000 # 28830 <__clzdi2+0x86e>
   11b02:	0380b0ef          	jal	x1,1cb3a <puts>
   11b06:	fa843583          	ld	x11,-88(x8)
   11b0a:	000287b7          	lui	x15,0x28
   11b0e:	28078513          	addi	x10,x15,640 # 28280 <__clzdi2+0x2be>
   11b12:	6b10a0ef          	jal	x1,1c9c2 <printf>
   11b16:	557d                	c.li	x10,-1
   11b18:	02a0a0ef          	jal	x1,1bb42 <exit>
   11b1c:	fa843703          	ld	x14,-88(x8)
   11b20:	02000793          	addi	x15,x0,32
   11b24:	00e7eb63          	bltu	x15,x14,11b3a <_ZL17tiled_vector_reluPsPKsm+0x5a>
   11b28:	fa843603          	ld	x12,-88(x8)
   11b2c:	fb043583          	ld	x11,-80(x8)
   11b30:	fb843503          	ld	x10,-72(x8)
   11b34:	f47ff0ef          	jal	x1,11a7a <_ZL15fit_vector_reluPsPKsm>
   11b38:	a879                	c.j	11bd6 <_ZL17tiled_vector_reluPsPKsm+0xf6>
   11b3a:	fa843783          	ld	x15,-88(x8)
   11b3e:	8bfd                	c.andi	x15,31
   11b40:	fef43023          	sd	x15,-32(x8)
   11b44:	fa843783          	ld	x15,-88(x8)
   11b48:	8395                	c.srli	x15,0x5
   11b4a:	fcf43c23          	sd	x15,-40(x8)
   11b4e:	fe043423          	sd	x0,-24(x8)
   11b52:	a835                	c.j	11b8e <_ZL17tiled_vector_reluPsPKsm+0xae>
   11b54:	fe843783          	ld	x15,-24(x8)
   11b58:	0796                	c.slli	x15,0x5
   11b5a:	fcf43423          	sd	x15,-56(x8)
   11b5e:	fc843783          	ld	x15,-56(x8)
   11b62:	0786                	c.slli	x15,0x1
   11b64:	fb843703          	ld	x14,-72(x8)
   11b68:	00f706b3          	add	x13,x14,x15
   11b6c:	fc843783          	ld	x15,-56(x8)
   11b70:	0786                	c.slli	x15,0x1
   11b72:	fb043703          	ld	x14,-80(x8)
   11b76:	97ba                	c.add	x15,x14
   11b78:	02000613          	addi	x12,x0,32
   11b7c:	85be                	c.mv	x11,x15
   11b7e:	8536                	c.mv	x10,x13
   11b80:	efbff0ef          	jal	x1,11a7a <_ZL15fit_vector_reluPsPKsm>
   11b84:	fe843783          	ld	x15,-24(x8)
   11b88:	0785                	c.addi	x15,1
   11b8a:	fef43423          	sd	x15,-24(x8)
   11b8e:	fe843703          	ld	x14,-24(x8)
   11b92:	fd843783          	ld	x15,-40(x8)
   11b96:	faf76fe3          	bltu	x14,x15,11b54 <_ZL17tiled_vector_reluPsPKsm+0x74>
   11b9a:	fe043783          	ld	x15,-32(x8)
   11b9e:	cf85                	c.beqz	x15,11bd6 <_ZL17tiled_vector_reluPsPKsm+0xf6>
   11ba0:	fa843703          	ld	x14,-88(x8)
   11ba4:	fe043783          	ld	x15,-32(x8)
   11ba8:	40f707b3          	sub	x15,x14,x15
   11bac:	fcf43823          	sd	x15,-48(x8)
   11bb0:	fd043783          	ld	x15,-48(x8)
   11bb4:	0786                	c.slli	x15,0x1
   11bb6:	fb843703          	ld	x14,-72(x8)
   11bba:	00f706b3          	add	x13,x14,x15
   11bbe:	fd043783          	ld	x15,-48(x8)
   11bc2:	0786                	c.slli	x15,0x1
   11bc4:	fb043703          	ld	x14,-80(x8)
   11bc8:	97ba                	c.add	x15,x14
   11bca:	fe043603          	ld	x12,-32(x8)
   11bce:	85be                	c.mv	x11,x15
   11bd0:	8536                	c.mv	x10,x13
   11bd2:	ea9ff0ef          	jal	x1,11a7a <_ZL15fit_vector_reluPsPKsm>
   11bd6:	0001                	c.addi	x0,0
   11bd8:	60e6                	c.ldsp	x1,88(x2)
   11bda:	6446                	c.ldsp	x8,80(x2)
   11bdc:	6125                	c.addi16sp	x2,96
   11bde:	8082                	c.jr	x1

0000000000011be0 <_ZL17tiled_matrix_reluPsPKsmm>:
   11be0:	7139                	c.addi16sp	x2,-64
   11be2:	fc06                	c.sdsp	x1,56(x2)
   11be4:	f822                	c.sdsp	x8,48(x2)
   11be6:	0080                	c.addi4spn	x8,x2,64
   11be8:	fca43c23          	sd	x10,-40(x8)
   11bec:	fcb43823          	sd	x11,-48(x8)
   11bf0:	fcc43423          	sd	x12,-56(x8)
   11bf4:	fcd43023          	sd	x13,-64(x8)
   11bf8:	fd843783          	ld	x15,-40(x8)
   11bfc:	e785                	c.bnez	x15,11c24 <_ZL17tiled_matrix_reluPsPKsmm+0x44>
   11bfe:	000297b7          	lui	x15,0x29
   11c02:	88878513          	addi	x10,x15,-1912 # 28888 <__clzdi2+0x8c6>
   11c06:	7350a0ef          	jal	x1,1cb3a <puts>
   11c0a:	fc043603          	ld	x12,-64(x8)
   11c0e:	fc843583          	ld	x11,-56(x8)
   11c12:	000297b7          	lui	x15,0x29
   11c16:	8e078513          	addi	x10,x15,-1824 # 288e0 <__clzdi2+0x91e>
   11c1a:	5a90a0ef          	jal	x1,1c9c2 <printf>
   11c1e:	557d                	c.li	x10,-1
   11c20:	723090ef          	jal	x1,1bb42 <exit>
   11c24:	fe043423          	sd	x0,-24(x8)
   11c28:	a089                	c.j	11c6a <_ZL17tiled_matrix_reluPsPKsmm+0x8a>
   11c2a:	fe843703          	ld	x14,-24(x8)
   11c2e:	fc043783          	ld	x15,-64(x8)
   11c32:	02f707b3          	mul	x15,x14,x15
   11c36:	0786                	c.slli	x15,0x1
   11c38:	fd843703          	ld	x14,-40(x8)
   11c3c:	00f706b3          	add	x13,x14,x15
   11c40:	fe843703          	ld	x14,-24(x8)
   11c44:	fc043783          	ld	x15,-64(x8)
   11c48:	02f707b3          	mul	x15,x14,x15
   11c4c:	0786                	c.slli	x15,0x1
   11c4e:	fd043703          	ld	x14,-48(x8)
   11c52:	97ba                	c.add	x15,x14
   11c54:	fc043603          	ld	x12,-64(x8)
   11c58:	85be                	c.mv	x11,x15
   11c5a:	8536                	c.mv	x10,x13
   11c5c:	e85ff0ef          	jal	x1,11ae0 <_ZL17tiled_vector_reluPsPKsm>
   11c60:	fe843783          	ld	x15,-24(x8)
   11c64:	0785                	c.addi	x15,1
   11c66:	fef43423          	sd	x15,-24(x8)
   11c6a:	fe843703          	ld	x14,-24(x8)
   11c6e:	fc843783          	ld	x15,-56(x8)
   11c72:	faf76ce3          	bltu	x14,x15,11c2a <_ZL17tiled_matrix_reluPsPKsmm+0x4a>
   11c76:	0001                	c.addi	x0,0
   11c78:	0001                	c.addi	x0,0
   11c7a:	70e2                	c.ldsp	x1,56(x2)
   11c7c:	7442                	c.ldsp	x8,48(x2)
   11c7e:	6121                	c.addi16sp	x2,64
   11c80:	8082                	c.jr	x1

0000000000011c82 <_ZL15fit_vector_tanhPsPKsm>:
   11c82:	7179                	c.addi16sp	x2,-48
   11c84:	f406                	c.sdsp	x1,40(x2)
   11c86:	f022                	c.sdsp	x8,32(x2)
   11c88:	1800                	c.addi4spn	x8,x2,48
   11c8a:	fea43423          	sd	x10,-24(x8)
   11c8e:	feb43023          	sd	x11,-32(x8)
   11c92:	fcc43c23          	sd	x12,-40(x8)
   11c96:	fd843703          	ld	x14,-40(x8)
   11c9a:	02000793          	addi	x15,x0,32
   11c9e:	02e7f263          	bgeu	x15,x14,11cc2 <_ZL15fit_vector_tanhPsPKsm+0x40>
   11ca2:	000287b7          	lui	x15,0x28
   11ca6:	1d078693          	addi	x13,x15,464 # 281d0 <__clzdi2+0x20e>
   11caa:	000297b7          	lui	x15,0x29
   11cae:	91078613          	addi	x12,x15,-1776 # 28910 <__clzdi2+0x94e>
   11cb2:	18b00593          	addi	x11,x0,395
   11cb6:	000287b7          	lui	x15,0x28
   11cba:	0c878513          	addi	x10,x15,200 # 280c8 <__clzdi2+0x106>
   11cbe:	631090ef          	jal	x1,1baee <__assert_func>
   11cc2:	fd843783          	ld	x15,-40(x8)
   11cc6:	18f7b00b          	config.fiona	x0,x15,x15
   11cca:	fe043783          	ld	x15,-32(x8)
   11cce:	1007a08b          	vld.fiona	x1,x15
   11cd2:	0e10810b          	vtanh.fiona	x2,x1
   11cd6:	fe843783          	ld	x15,-24(x8)
   11cda:	1227a00b          	vst.fiona	x15,x2
   11cde:	0001                	c.addi	x0,0
   11ce0:	70a2                	c.ldsp	x1,40(x2)
   11ce2:	7402                	c.ldsp	x8,32(x2)
   11ce4:	6145                	c.addi16sp	x2,48
   11ce6:	8082                	c.jr	x1

0000000000011ce8 <_ZL17tiled_vector_tanhPsPKsm>:
   11ce8:	711d                	c.addi16sp	x2,-96
   11cea:	ec86                	c.sdsp	x1,88(x2)
   11cec:	e8a2                	c.sdsp	x8,80(x2)
   11cee:	1080                	c.addi4spn	x8,x2,96
   11cf0:	faa43c23          	sd	x10,-72(x8)
   11cf4:	fab43823          	sd	x11,-80(x8)
   11cf8:	fac43423          	sd	x12,-88(x8)
   11cfc:	fb843783          	ld	x15,-72(x8)
   11d00:	e395                	c.bnez	x15,11d24 <_ZL17tiled_vector_tanhPsPKsm+0x3c>
   11d02:	000297b7          	lui	x15,0x29
   11d06:	94878513          	addi	x10,x15,-1720 # 28948 <__clzdi2+0x986>
   11d0a:	6310a0ef          	jal	x1,1cb3a <puts>
   11d0e:	fa843583          	ld	x11,-88(x8)
   11d12:	000287b7          	lui	x15,0x28
   11d16:	28078513          	addi	x10,x15,640 # 28280 <__clzdi2+0x2be>
   11d1a:	4a90a0ef          	jal	x1,1c9c2 <printf>
   11d1e:	557d                	c.li	x10,-1
   11d20:	623090ef          	jal	x1,1bb42 <exit>
   11d24:	fa843703          	ld	x14,-88(x8)
   11d28:	02000793          	addi	x15,x0,32
   11d2c:	00e7eb63          	bltu	x15,x14,11d42 <_ZL17tiled_vector_tanhPsPKsm+0x5a>
   11d30:	fa843603          	ld	x12,-88(x8)
   11d34:	fb043583          	ld	x11,-80(x8)
   11d38:	fb843503          	ld	x10,-72(x8)
   11d3c:	f47ff0ef          	jal	x1,11c82 <_ZL15fit_vector_tanhPsPKsm>
   11d40:	a879                	c.j	11dde <_ZL17tiled_vector_tanhPsPKsm+0xf6>
   11d42:	fa843783          	ld	x15,-88(x8)
   11d46:	8bfd                	c.andi	x15,31
   11d48:	fef43023          	sd	x15,-32(x8)
   11d4c:	fa843783          	ld	x15,-88(x8)
   11d50:	8395                	c.srli	x15,0x5
   11d52:	fcf43c23          	sd	x15,-40(x8)
   11d56:	fe043423          	sd	x0,-24(x8)
   11d5a:	a835                	c.j	11d96 <_ZL17tiled_vector_tanhPsPKsm+0xae>
   11d5c:	fe843783          	ld	x15,-24(x8)
   11d60:	0796                	c.slli	x15,0x5
   11d62:	fcf43423          	sd	x15,-56(x8)
   11d66:	fc843783          	ld	x15,-56(x8)
   11d6a:	0786                	c.slli	x15,0x1
   11d6c:	fb843703          	ld	x14,-72(x8)
   11d70:	00f706b3          	add	x13,x14,x15
   11d74:	fc843783          	ld	x15,-56(x8)
   11d78:	0786                	c.slli	x15,0x1
   11d7a:	fb043703          	ld	x14,-80(x8)
   11d7e:	97ba                	c.add	x15,x14
   11d80:	02000613          	addi	x12,x0,32
   11d84:	85be                	c.mv	x11,x15
   11d86:	8536                	c.mv	x10,x13
   11d88:	efbff0ef          	jal	x1,11c82 <_ZL15fit_vector_tanhPsPKsm>
   11d8c:	fe843783          	ld	x15,-24(x8)
   11d90:	0785                	c.addi	x15,1
   11d92:	fef43423          	sd	x15,-24(x8)
   11d96:	fe843703          	ld	x14,-24(x8)
   11d9a:	fd843783          	ld	x15,-40(x8)
   11d9e:	faf76fe3          	bltu	x14,x15,11d5c <_ZL17tiled_vector_tanhPsPKsm+0x74>
   11da2:	fe043783          	ld	x15,-32(x8)
   11da6:	cf85                	c.beqz	x15,11dde <_ZL17tiled_vector_tanhPsPKsm+0xf6>
   11da8:	fa843703          	ld	x14,-88(x8)
   11dac:	fe043783          	ld	x15,-32(x8)
   11db0:	40f707b3          	sub	x15,x14,x15
   11db4:	fcf43823          	sd	x15,-48(x8)
   11db8:	fd043783          	ld	x15,-48(x8)
   11dbc:	0786                	c.slli	x15,0x1
   11dbe:	fb843703          	ld	x14,-72(x8)
   11dc2:	00f706b3          	add	x13,x14,x15
   11dc6:	fd043783          	ld	x15,-48(x8)
   11dca:	0786                	c.slli	x15,0x1
   11dcc:	fb043703          	ld	x14,-80(x8)
   11dd0:	97ba                	c.add	x15,x14
   11dd2:	fe043603          	ld	x12,-32(x8)
   11dd6:	85be                	c.mv	x11,x15
   11dd8:	8536                	c.mv	x10,x13
   11dda:	ea9ff0ef          	jal	x1,11c82 <_ZL15fit_vector_tanhPsPKsm>
   11dde:	0001                	c.addi	x0,0
   11de0:	60e6                	c.ldsp	x1,88(x2)
   11de2:	6446                	c.ldsp	x8,80(x2)
   11de4:	6125                	c.addi16sp	x2,96
   11de6:	8082                	c.jr	x1

0000000000011de8 <_ZL17tiled_matrix_tanhPsPKsmm>:
   11de8:	7139                	c.addi16sp	x2,-64
   11dea:	fc06                	c.sdsp	x1,56(x2)
   11dec:	f822                	c.sdsp	x8,48(x2)
   11dee:	0080                	c.addi4spn	x8,x2,64
   11df0:	fca43c23          	sd	x10,-40(x8)
   11df4:	fcb43823          	sd	x11,-48(x8)
   11df8:	fcc43423          	sd	x12,-56(x8)
   11dfc:	fcd43023          	sd	x13,-64(x8)
   11e00:	fd843783          	ld	x15,-40(x8)
   11e04:	e785                	c.bnez	x15,11e2c <_ZL17tiled_matrix_tanhPsPKsmm+0x44>
   11e06:	000297b7          	lui	x15,0x29
   11e0a:	9a078513          	addi	x10,x15,-1632 # 289a0 <__clzdi2+0x9de>
   11e0e:	52d0a0ef          	jal	x1,1cb3a <puts>
   11e12:	fc043603          	ld	x12,-64(x8)
   11e16:	fc843583          	ld	x11,-56(x8)
   11e1a:	000297b7          	lui	x15,0x29
   11e1e:	8e078513          	addi	x10,x15,-1824 # 288e0 <__clzdi2+0x91e>
   11e22:	3a10a0ef          	jal	x1,1c9c2 <printf>
   11e26:	557d                	c.li	x10,-1
   11e28:	51b090ef          	jal	x1,1bb42 <exit>
   11e2c:	fe043423          	sd	x0,-24(x8)
   11e30:	a089                	c.j	11e72 <_ZL17tiled_matrix_tanhPsPKsmm+0x8a>
   11e32:	fe843703          	ld	x14,-24(x8)
   11e36:	fc043783          	ld	x15,-64(x8)
   11e3a:	02f707b3          	mul	x15,x14,x15
   11e3e:	0786                	c.slli	x15,0x1
   11e40:	fd843703          	ld	x14,-40(x8)
   11e44:	00f706b3          	add	x13,x14,x15
   11e48:	fe843703          	ld	x14,-24(x8)
   11e4c:	fc043783          	ld	x15,-64(x8)
   11e50:	02f707b3          	mul	x15,x14,x15
   11e54:	0786                	c.slli	x15,0x1
   11e56:	fd043703          	ld	x14,-48(x8)
   11e5a:	97ba                	c.add	x15,x14
   11e5c:	fc043603          	ld	x12,-64(x8)
   11e60:	85be                	c.mv	x11,x15
   11e62:	8536                	c.mv	x10,x13
   11e64:	e85ff0ef          	jal	x1,11ce8 <_ZL17tiled_vector_tanhPsPKsm>
   11e68:	fe843783          	ld	x15,-24(x8)
   11e6c:	0785                	c.addi	x15,1
   11e6e:	fef43423          	sd	x15,-24(x8)
   11e72:	fe843703          	ld	x14,-24(x8)
   11e76:	fc843783          	ld	x15,-56(x8)
   11e7a:	faf76ce3          	bltu	x14,x15,11e32 <_ZL17tiled_matrix_tanhPsPKsmm+0x4a>
   11e7e:	0001                	c.addi	x0,0
   11e80:	0001                	c.addi	x0,0
   11e82:	70e2                	c.ldsp	x1,56(x2)
   11e84:	7442                	c.ldsp	x8,48(x2)
   11e86:	6121                	c.addi16sp	x2,64
   11e88:	8082                	c.jr	x1

0000000000011e8a <_ZL18fit_vector_sigmoidPsPKsm>:
   11e8a:	7179                	c.addi16sp	x2,-48
   11e8c:	f406                	c.sdsp	x1,40(x2)
   11e8e:	f022                	c.sdsp	x8,32(x2)
   11e90:	1800                	c.addi4spn	x8,x2,48
   11e92:	fea43423          	sd	x10,-24(x8)
   11e96:	feb43023          	sd	x11,-32(x8)
   11e9a:	fcc43c23          	sd	x12,-40(x8)
   11e9e:	fd843703          	ld	x14,-40(x8)
   11ea2:	02000793          	addi	x15,x0,32
   11ea6:	02e7f263          	bgeu	x15,x14,11eca <_ZL18fit_vector_sigmoidPsPKsm+0x40>
   11eaa:	000287b7          	lui	x15,0x28
   11eae:	1d078693          	addi	x13,x15,464 # 281d0 <__clzdi2+0x20e>
   11eb2:	000297b7          	lui	x15,0x29
   11eb6:	9f878613          	addi	x12,x15,-1544 # 289f8 <__clzdi2+0xa36>
   11eba:	1b600593          	addi	x11,x0,438
   11ebe:	000287b7          	lui	x15,0x28
   11ec2:	0c878513          	addi	x10,x15,200 # 280c8 <__clzdi2+0x106>
   11ec6:	429090ef          	jal	x1,1baee <__assert_func>
   11eca:	fd843783          	ld	x15,-40(x8)
   11ece:	18f7b00b          	config.fiona	x0,x15,x15
   11ed2:	fe043783          	ld	x15,-32(x8)
   11ed6:	1007a08b          	vld.fiona	x1,x15
   11eda:	0e20810b          	vsigm.fiona	x2,x1
   11ede:	fe843783          	ld	x15,-24(x8)
   11ee2:	1227a00b          	vst.fiona	x15,x2
   11ee6:	0001                	c.addi	x0,0
   11ee8:	70a2                	c.ldsp	x1,40(x2)
   11eea:	7402                	c.ldsp	x8,32(x2)
   11eec:	6145                	c.addi16sp	x2,48
   11eee:	8082                	c.jr	x1

0000000000011ef0 <_ZL20tiled_vector_sigmoidPsPKsm>:
   11ef0:	711d                	c.addi16sp	x2,-96
   11ef2:	ec86                	c.sdsp	x1,88(x2)
   11ef4:	e8a2                	c.sdsp	x8,80(x2)
   11ef6:	1080                	c.addi4spn	x8,x2,96
   11ef8:	faa43c23          	sd	x10,-72(x8)
   11efc:	fab43823          	sd	x11,-80(x8)
   11f00:	fac43423          	sd	x12,-88(x8)
   11f04:	fb843783          	ld	x15,-72(x8)
   11f08:	e395                	c.bnez	x15,11f2c <_ZL20tiled_vector_sigmoidPsPKsm+0x3c>
   11f0a:	000297b7          	lui	x15,0x29
   11f0e:	a3078513          	addi	x10,x15,-1488 # 28a30 <__clzdi2+0xa6e>
   11f12:	4290a0ef          	jal	x1,1cb3a <puts>
   11f16:	fa843583          	ld	x11,-88(x8)
   11f1a:	000287b7          	lui	x15,0x28
   11f1e:	28078513          	addi	x10,x15,640 # 28280 <__clzdi2+0x2be>
   11f22:	2a10a0ef          	jal	x1,1c9c2 <printf>
   11f26:	557d                	c.li	x10,-1
   11f28:	41b090ef          	jal	x1,1bb42 <exit>
   11f2c:	fa843703          	ld	x14,-88(x8)
   11f30:	02000793          	addi	x15,x0,32
   11f34:	00e7eb63          	bltu	x15,x14,11f4a <_ZL20tiled_vector_sigmoidPsPKsm+0x5a>
   11f38:	fa843603          	ld	x12,-88(x8)
   11f3c:	fb043583          	ld	x11,-80(x8)
   11f40:	fb843503          	ld	x10,-72(x8)
   11f44:	f47ff0ef          	jal	x1,11e8a <_ZL18fit_vector_sigmoidPsPKsm>
   11f48:	a879                	c.j	11fe6 <_ZL20tiled_vector_sigmoidPsPKsm+0xf6>
   11f4a:	fa843783          	ld	x15,-88(x8)
   11f4e:	8bfd                	c.andi	x15,31
   11f50:	fef43023          	sd	x15,-32(x8)
   11f54:	fa843783          	ld	x15,-88(x8)
   11f58:	8395                	c.srli	x15,0x5
   11f5a:	fcf43c23          	sd	x15,-40(x8)
   11f5e:	fe043423          	sd	x0,-24(x8)
   11f62:	a835                	c.j	11f9e <_ZL20tiled_vector_sigmoidPsPKsm+0xae>
   11f64:	fe843783          	ld	x15,-24(x8)
   11f68:	0796                	c.slli	x15,0x5
   11f6a:	fcf43423          	sd	x15,-56(x8)
   11f6e:	fc843783          	ld	x15,-56(x8)
   11f72:	0786                	c.slli	x15,0x1
   11f74:	fb843703          	ld	x14,-72(x8)
   11f78:	00f706b3          	add	x13,x14,x15
   11f7c:	fc843783          	ld	x15,-56(x8)
   11f80:	0786                	c.slli	x15,0x1
   11f82:	fb043703          	ld	x14,-80(x8)
   11f86:	97ba                	c.add	x15,x14
   11f88:	02000613          	addi	x12,x0,32
   11f8c:	85be                	c.mv	x11,x15
   11f8e:	8536                	c.mv	x10,x13
   11f90:	efbff0ef          	jal	x1,11e8a <_ZL18fit_vector_sigmoidPsPKsm>
   11f94:	fe843783          	ld	x15,-24(x8)
   11f98:	0785                	c.addi	x15,1
   11f9a:	fef43423          	sd	x15,-24(x8)
   11f9e:	fe843703          	ld	x14,-24(x8)
   11fa2:	fd843783          	ld	x15,-40(x8)
   11fa6:	faf76fe3          	bltu	x14,x15,11f64 <_ZL20tiled_vector_sigmoidPsPKsm+0x74>
   11faa:	fe043783          	ld	x15,-32(x8)
   11fae:	cf85                	c.beqz	x15,11fe6 <_ZL20tiled_vector_sigmoidPsPKsm+0xf6>
   11fb0:	fa843703          	ld	x14,-88(x8)
   11fb4:	fe043783          	ld	x15,-32(x8)
   11fb8:	40f707b3          	sub	x15,x14,x15
   11fbc:	fcf43823          	sd	x15,-48(x8)
   11fc0:	fd043783          	ld	x15,-48(x8)
   11fc4:	0786                	c.slli	x15,0x1
   11fc6:	fb843703          	ld	x14,-72(x8)
   11fca:	00f706b3          	add	x13,x14,x15
   11fce:	fd043783          	ld	x15,-48(x8)
   11fd2:	0786                	c.slli	x15,0x1
   11fd4:	fb043703          	ld	x14,-80(x8)
   11fd8:	97ba                	c.add	x15,x14
   11fda:	fe043603          	ld	x12,-32(x8)
   11fde:	85be                	c.mv	x11,x15
   11fe0:	8536                	c.mv	x10,x13
   11fe2:	ea9ff0ef          	jal	x1,11e8a <_ZL18fit_vector_sigmoidPsPKsm>
   11fe6:	0001                	c.addi	x0,0
   11fe8:	60e6                	c.ldsp	x1,88(x2)
   11fea:	6446                	c.ldsp	x8,80(x2)
   11fec:	6125                	c.addi16sp	x2,96
   11fee:	8082                	c.jr	x1

0000000000011ff0 <_ZL20tiled_matrix_sigmoidPsPKsmm>:
   11ff0:	7139                	c.addi16sp	x2,-64
   11ff2:	fc06                	c.sdsp	x1,56(x2)
   11ff4:	f822                	c.sdsp	x8,48(x2)
   11ff6:	0080                	c.addi4spn	x8,x2,64
   11ff8:	fca43c23          	sd	x10,-40(x8)
   11ffc:	fcb43823          	sd	x11,-48(x8)
   12000:	fcc43423          	sd	x12,-56(x8)
   12004:	fcd43023          	sd	x13,-64(x8)
   12008:	fd843783          	ld	x15,-40(x8)
   1200c:	e785                	c.bnez	x15,12034 <_ZL20tiled_matrix_sigmoidPsPKsmm+0x44>
   1200e:	000297b7          	lui	x15,0x29
   12012:	a8878513          	addi	x10,x15,-1400 # 28a88 <__clzdi2+0xac6>
   12016:	3250a0ef          	jal	x1,1cb3a <puts>
   1201a:	fc043603          	ld	x12,-64(x8)
   1201e:	fc843583          	ld	x11,-56(x8)
   12022:	000297b7          	lui	x15,0x29
   12026:	8e078513          	addi	x10,x15,-1824 # 288e0 <__clzdi2+0x91e>
   1202a:	1990a0ef          	jal	x1,1c9c2 <printf>
   1202e:	557d                	c.li	x10,-1
   12030:	313090ef          	jal	x1,1bb42 <exit>
   12034:	fe043423          	sd	x0,-24(x8)
   12038:	a089                	c.j	1207a <_ZL20tiled_matrix_sigmoidPsPKsmm+0x8a>
   1203a:	fe843703          	ld	x14,-24(x8)
   1203e:	fc043783          	ld	x15,-64(x8)
   12042:	02f707b3          	mul	x15,x14,x15
   12046:	0786                	c.slli	x15,0x1
   12048:	fd843703          	ld	x14,-40(x8)
   1204c:	00f706b3          	add	x13,x14,x15
   12050:	fe843703          	ld	x14,-24(x8)
   12054:	fc043783          	ld	x15,-64(x8)
   12058:	02f707b3          	mul	x15,x14,x15
   1205c:	0786                	c.slli	x15,0x1
   1205e:	fd043703          	ld	x14,-48(x8)
   12062:	97ba                	c.add	x15,x14
   12064:	fc043603          	ld	x12,-64(x8)
   12068:	85be                	c.mv	x11,x15
   1206a:	8536                	c.mv	x10,x13
   1206c:	e85ff0ef          	jal	x1,11ef0 <_ZL20tiled_vector_sigmoidPsPKsm>
   12070:	fe843783          	ld	x15,-24(x8)
   12074:	0785                	c.addi	x15,1
   12076:	fef43423          	sd	x15,-24(x8)
   1207a:	fe843703          	ld	x14,-24(x8)
   1207e:	fc843783          	ld	x15,-56(x8)
   12082:	faf76ce3          	bltu	x14,x15,1203a <_ZL20tiled_matrix_sigmoidPsPKsmm+0x4a>
   12086:	0001                	c.addi	x0,0
   12088:	0001                	c.addi	x0,0
   1208a:	70e2                	c.ldsp	x1,56(x2)
   1208c:	7442                	c.ldsp	x8,48(x2)
   1208e:	6121                	c.addi16sp	x2,64
   12090:	8082                	c.jr	x1

0000000000012092 <_ZL14fit_vector_maxPsPKsm>:
   12092:	7179                	c.addi16sp	x2,-48
   12094:	f406                	c.sdsp	x1,40(x2)
   12096:	f022                	c.sdsp	x8,32(x2)
   12098:	1800                	c.addi4spn	x8,x2,48
   1209a:	fea43423          	sd	x10,-24(x8)
   1209e:	feb43023          	sd	x11,-32(x8)
   120a2:	fcc43c23          	sd	x12,-40(x8)
   120a6:	fd843703          	ld	x14,-40(x8)
   120aa:	02000793          	addi	x15,x0,32
   120ae:	02e7f263          	bgeu	x15,x14,120d2 <_ZL14fit_vector_maxPsPKsm+0x40>
   120b2:	000287b7          	lui	x15,0x28
   120b6:	1d078693          	addi	x13,x15,464 # 281d0 <__clzdi2+0x20e>
   120ba:	000297b7          	lui	x15,0x29
   120be:	ae078613          	addi	x12,x15,-1312 # 28ae0 <__clzdi2+0xb1e>
   120c2:	1e100593          	addi	x11,x0,481
   120c6:	000287b7          	lui	x15,0x28
   120ca:	0c878513          	addi	x10,x15,200 # 280c8 <__clzdi2+0x106>
   120ce:	221090ef          	jal	x1,1baee <__assert_func>
   120d2:	fd843783          	ld	x15,-40(x8)
   120d6:	18f7b00b          	config.fiona	x0,x15,x15
   120da:	fe043783          	ld	x15,-32(x8)
   120de:	1007a08b          	vld.fiona	x1,x15
   120e2:	1600c70b          	vmax.fiona	x14,x1
   120e6:	fe843783          	ld	x15,-24(x8)
   120ea:	00e79023          	sh	x14,0(x15)
   120ee:	0001                	c.addi	x0,0
   120f0:	70a2                	c.ldsp	x1,40(x2)
   120f2:	7402                	c.ldsp	x8,32(x2)
   120f4:	6145                	c.addi16sp	x2,48
   120f6:	8082                	c.jr	x1

00000000000120f8 <_ZL16tiled_vector_maxPsPKsm>:
   120f8:	7159                	c.addi16sp	x2,-112
   120fa:	f486                	c.sdsp	x1,104(x2)
   120fc:	f0a2                	c.sdsp	x8,96(x2)
   120fe:	1880                	c.addi4spn	x8,x2,112
   12100:	faa43423          	sd	x10,-88(x8)
   12104:	fab43023          	sd	x11,-96(x8)
   12108:	f8c43c23          	sd	x12,-104(x8)
   1210c:	fa843783          	ld	x15,-88(x8)
   12110:	e385                	c.bnez	x15,12130 <_ZL16tiled_vector_maxPsPKsm+0x38>
   12112:	000297b7          	lui	x15,0x29
   12116:	b1878513          	addi	x10,x15,-1256 # 28b18 <__clzdi2+0xb56>
   1211a:	2210a0ef          	jal	x1,1cb3a <puts>
   1211e:	000297b7          	lui	x15,0x29
   12122:	b6878513          	addi	x10,x15,-1176 # 28b68 <__clzdi2+0xba6>
   12126:	2150a0ef          	jal	x1,1cb3a <puts>
   1212a:	557d                	c.li	x10,-1
   1212c:	217090ef          	jal	x1,1bb42 <exit>
   12130:	f9843703          	ld	x14,-104(x8)
   12134:	02000793          	addi	x15,x0,32
   12138:	00e7eb63          	bltu	x15,x14,1214e <_ZL16tiled_vector_maxPsPKsm+0x56>
   1213c:	f9843603          	ld	x12,-104(x8)
   12140:	fa043583          	ld	x11,-96(x8)
   12144:	fa843503          	ld	x10,-88(x8)
   12148:	f4bff0ef          	jal	x1,12092 <_ZL14fit_vector_maxPsPKsm>
   1214c:	a0f1                	c.j	12218 <_ZL16tiled_vector_maxPsPKsm+0x120>
   1214e:	f9843783          	ld	x15,-104(x8)
   12152:	8bfd                	c.andi	x15,31
   12154:	fcf43c23          	sd	x15,-40(x8)
   12158:	f9843783          	ld	x15,-104(x8)
   1215c:	8395                	c.srli	x15,0x5
   1215e:	fcf43823          	sd	x15,-48(x8)
   12162:	77e1                	c.lui	x15,0xffff8
   12164:	fef41723          	sh	x15,-18(x8)
   12168:	fe043023          	sd	x0,-32(x8)
   1216c:	a0a9                	c.j	121b6 <_ZL16tiled_vector_maxPsPKsm+0xbe>
   1216e:	fe043783          	ld	x15,-32(x8)
   12172:	0796                	c.slli	x15,0x5
   12174:	fcf43023          	sd	x15,-64(x8)
   12178:	fc043783          	ld	x15,-64(x8)
   1217c:	0786                	c.slli	x15,0x1
   1217e:	fa043703          	ld	x14,-96(x8)
   12182:	973e                	c.add	x14,x15
   12184:	fbe40793          	addi	x15,x8,-66
   12188:	02000613          	addi	x12,x0,32
   1218c:	85ba                	c.mv	x11,x14
   1218e:	853e                	c.mv	x10,x15
   12190:	f03ff0ef          	jal	x1,12092 <_ZL14fit_vector_maxPsPKsm>
   12194:	fbe41783          	lh	x15,-66(x8)
   12198:	fee41703          	lh	x14,-18(x8)
   1219c:	2701                	c.addiw	x14,0
   1219e:	2781                	c.addiw	x15,0
   121a0:	00f75663          	bge	x14,x15,121ac <_ZL16tiled_vector_maxPsPKsm+0xb4>
   121a4:	fbe45783          	lhu	x15,-66(x8)
   121a8:	fef41723          	sh	x15,-18(x8)
   121ac:	fe043783          	ld	x15,-32(x8)
   121b0:	0785                	c.addi	x15,1
   121b2:	fef43023          	sd	x15,-32(x8)
   121b6:	fe043703          	ld	x14,-32(x8)
   121ba:	fd043783          	ld	x15,-48(x8)
   121be:	faf768e3          	bltu	x14,x15,1216e <_ZL16tiled_vector_maxPsPKsm+0x76>
   121c2:	fd843783          	ld	x15,-40(x8)
   121c6:	c3b9                	c.beqz	x15,1220c <_ZL16tiled_vector_maxPsPKsm+0x114>
   121c8:	f9843703          	ld	x14,-104(x8)
   121cc:	fd843783          	ld	x15,-40(x8)
   121d0:	40f707b3          	sub	x15,x14,x15
   121d4:	fcf43423          	sd	x15,-56(x8)
   121d8:	fc843783          	ld	x15,-56(x8)
   121dc:	0786                	c.slli	x15,0x1
   121de:	fa043703          	ld	x14,-96(x8)
   121e2:	973e                	c.add	x14,x15
   121e4:	fbe40793          	addi	x15,x8,-66
   121e8:	fd843603          	ld	x12,-40(x8)
   121ec:	85ba                	c.mv	x11,x14
   121ee:	853e                	c.mv	x10,x15
   121f0:	ea3ff0ef          	jal	x1,12092 <_ZL14fit_vector_maxPsPKsm>
   121f4:	fbe41783          	lh	x15,-66(x8)
   121f8:	fee41703          	lh	x14,-18(x8)
   121fc:	2701                	c.addiw	x14,0
   121fe:	2781                	c.addiw	x15,0
   12200:	00f75663          	bge	x14,x15,1220c <_ZL16tiled_vector_maxPsPKsm+0x114>
   12204:	fbe45783          	lhu	x15,-66(x8)
   12208:	fef41723          	sh	x15,-18(x8)
   1220c:	fa843783          	ld	x15,-88(x8)
   12210:	fee45703          	lhu	x14,-18(x8)
   12214:	00e79023          	sh	x14,0(x15) # ffffffffffff8000 <__BSS_END__+0xfffffffffffc7890>
   12218:	0001                	c.addi	x0,0
   1221a:	70a6                	c.ldsp	x1,104(x2)
   1221c:	7406                	c.ldsp	x8,96(x2)
   1221e:	6165                	c.addi16sp	x2,112
   12220:	8082                	c.jr	x1

0000000000012222 <_ZL23tiled_matrix_vector_maxPsPKsmm>:
   12222:	7139                	c.addi16sp	x2,-64
   12224:	fc06                	c.sdsp	x1,56(x2)
   12226:	f822                	c.sdsp	x8,48(x2)
   12228:	0080                	c.addi4spn	x8,x2,64
   1222a:	fca43c23          	sd	x10,-40(x8)
   1222e:	fcb43823          	sd	x11,-48(x8)
   12232:	fcc43423          	sd	x12,-56(x8)
   12236:	fcd43023          	sd	x13,-64(x8)
   1223a:	fd843783          	ld	x15,-40(x8)
   1223e:	e395                	c.bnez	x15,12262 <_ZL23tiled_matrix_vector_maxPsPKsmm+0x40>
   12240:	000297b7          	lui	x15,0x29
   12244:	b8078513          	addi	x10,x15,-1152 # 28b80 <__clzdi2+0xbbe>
   12248:	0f30a0ef          	jal	x1,1cb3a <puts>
   1224c:	fc843583          	ld	x11,-56(x8)
   12250:	000287b7          	lui	x15,0x28
   12254:	13078513          	addi	x10,x15,304 # 28130 <__clzdi2+0x16e>
   12258:	76a0a0ef          	jal	x1,1c9c2 <printf>
   1225c:	557d                	c.li	x10,-1
   1225e:	0e5090ef          	jal	x1,1bb42 <exit>
   12262:	fe043423          	sd	x0,-24(x8)
   12266:	a82d                	c.j	122a0 <_ZL23tiled_matrix_vector_maxPsPKsmm+0x7e>
   12268:	fe843783          	ld	x15,-24(x8)
   1226c:	0786                	c.slli	x15,0x1
   1226e:	fd843703          	ld	x14,-40(x8)
   12272:	00f706b3          	add	x13,x14,x15
   12276:	fe843703          	ld	x14,-24(x8)
   1227a:	fc043783          	ld	x15,-64(x8)
   1227e:	02f707b3          	mul	x15,x14,x15
   12282:	0786                	c.slli	x15,0x1
   12284:	fd043703          	ld	x14,-48(x8)
   12288:	97ba                	c.add	x15,x14
   1228a:	fc043603          	ld	x12,-64(x8)
   1228e:	85be                	c.mv	x11,x15
   12290:	8536                	c.mv	x10,x13
   12292:	e67ff0ef          	jal	x1,120f8 <_ZL16tiled_vector_maxPsPKsm>
   12296:	fe843783          	ld	x15,-24(x8)
   1229a:	0785                	c.addi	x15,1
   1229c:	fef43423          	sd	x15,-24(x8)
   122a0:	fe843703          	ld	x14,-24(x8)
   122a4:	fc843783          	ld	x15,-56(x8)
   122a8:	fcf760e3          	bltu	x14,x15,12268 <_ZL23tiled_matrix_vector_maxPsPKsmm+0x46>
   122ac:	0001                	c.addi	x0,0
   122ae:	0001                	c.addi	x0,0
   122b0:	70e2                	c.ldsp	x1,56(x2)
   122b2:	7442                	c.ldsp	x8,48(x2)
   122b4:	6121                	c.addi16sp	x2,64
   122b6:	8082                	c.jr	x1

00000000000122b8 <_ZL14fit_vector_minPsPKsm>:
   122b8:	7179                	c.addi16sp	x2,-48
   122ba:	f406                	c.sdsp	x1,40(x2)
   122bc:	f022                	c.sdsp	x8,32(x2)
   122be:	1800                	c.addi4spn	x8,x2,48
   122c0:	fea43423          	sd	x10,-24(x8)
   122c4:	feb43023          	sd	x11,-32(x8)
   122c8:	fcc43c23          	sd	x12,-40(x8)
   122cc:	fd843703          	ld	x14,-40(x8)
   122d0:	02000793          	addi	x15,x0,32
   122d4:	02e7f263          	bgeu	x15,x14,122f8 <_ZL14fit_vector_minPsPKsm+0x40>
   122d8:	000287b7          	lui	x15,0x28
   122dc:	1d078693          	addi	x13,x15,464 # 281d0 <__clzdi2+0x20e>
   122e0:	000297b7          	lui	x15,0x29
   122e4:	bd878613          	addi	x12,x15,-1064 # 28bd8 <__clzdi2+0xc16>
   122e8:	20f00593          	addi	x11,x0,527
   122ec:	000287b7          	lui	x15,0x28
   122f0:	0c878513          	addi	x10,x15,200 # 280c8 <__clzdi2+0x106>
   122f4:	7fa090ef          	jal	x1,1baee <__assert_func>
   122f8:	fd843783          	ld	x15,-40(x8)
   122fc:	18f7b00b          	config.fiona	x0,x15,x15
   12300:	fe043783          	ld	x15,-32(x8)
   12304:	1007a08b          	vld.fiona	x1,x15
   12308:	1610c70b          	vmin.fiona	x14,x1
   1230c:	fe843783          	ld	x15,-24(x8)
   12310:	00e79023          	sh	x14,0(x15)
   12314:	0001                	c.addi	x0,0
   12316:	70a2                	c.ldsp	x1,40(x2)
   12318:	7402                	c.ldsp	x8,32(x2)
   1231a:	6145                	c.addi16sp	x2,48
   1231c:	8082                	c.jr	x1

000000000001231e <_ZL16tiled_vector_minPsPKsm>:
   1231e:	7159                	c.addi16sp	x2,-112
   12320:	f486                	c.sdsp	x1,104(x2)
   12322:	f0a2                	c.sdsp	x8,96(x2)
   12324:	1880                	c.addi4spn	x8,x2,112
   12326:	faa43423          	sd	x10,-88(x8)
   1232a:	fab43023          	sd	x11,-96(x8)
   1232e:	f8c43c23          	sd	x12,-104(x8)
   12332:	fa843783          	ld	x15,-88(x8)
   12336:	e385                	c.bnez	x15,12356 <_ZL16tiled_vector_minPsPKsm+0x38>
   12338:	000297b7          	lui	x15,0x29
   1233c:	c1078513          	addi	x10,x15,-1008 # 28c10 <__clzdi2+0xc4e>
   12340:	7fa0a0ef          	jal	x1,1cb3a <puts>
   12344:	000297b7          	lui	x15,0x29
   12348:	b6878513          	addi	x10,x15,-1176 # 28b68 <__clzdi2+0xba6>
   1234c:	7ee0a0ef          	jal	x1,1cb3a <puts>
   12350:	557d                	c.li	x10,-1
   12352:	7f0090ef          	jal	x1,1bb42 <exit>
   12356:	f9843703          	ld	x14,-104(x8)
   1235a:	02000793          	addi	x15,x0,32
   1235e:	00e7eb63          	bltu	x15,x14,12374 <_ZL16tiled_vector_minPsPKsm+0x56>
   12362:	f9843603          	ld	x12,-104(x8)
   12366:	fa043583          	ld	x11,-96(x8)
   1236a:	fa843503          	ld	x10,-88(x8)
   1236e:	f4bff0ef          	jal	x1,122b8 <_ZL14fit_vector_minPsPKsm>
   12372:	a8c1                	c.j	12442 <_ZL16tiled_vector_minPsPKsm+0x124>
   12374:	f9843783          	ld	x15,-104(x8)
   12378:	8bfd                	c.andi	x15,31
   1237a:	fcf43c23          	sd	x15,-40(x8)
   1237e:	f9843783          	ld	x15,-104(x8)
   12382:	8395                	c.srli	x15,0x5
   12384:	fcf43823          	sd	x15,-48(x8)
   12388:	77e1                	c.lui	x15,0xffff8
   1238a:	fff7c793          	xori	x15,x15,-1
   1238e:	fef41723          	sh	x15,-18(x8)
   12392:	fe043023          	sd	x0,-32(x8)
   12396:	a0a9                	c.j	123e0 <_ZL16tiled_vector_minPsPKsm+0xc2>
   12398:	fe043783          	ld	x15,-32(x8)
   1239c:	0796                	c.slli	x15,0x5
   1239e:	fcf43023          	sd	x15,-64(x8)
   123a2:	fc043783          	ld	x15,-64(x8)
   123a6:	0786                	c.slli	x15,0x1
   123a8:	fa043703          	ld	x14,-96(x8)
   123ac:	973e                	c.add	x14,x15
   123ae:	fbe40793          	addi	x15,x8,-66
   123b2:	02000613          	addi	x12,x0,32
   123b6:	85ba                	c.mv	x11,x14
   123b8:	853e                	c.mv	x10,x15
   123ba:	effff0ef          	jal	x1,122b8 <_ZL14fit_vector_minPsPKsm>
   123be:	fbe41783          	lh	x15,-66(x8)
   123c2:	fee41703          	lh	x14,-18(x8)
   123c6:	2701                	c.addiw	x14,0
   123c8:	2781                	c.addiw	x15,0
   123ca:	00e7d663          	bge	x15,x14,123d6 <_ZL16tiled_vector_minPsPKsm+0xb8>
   123ce:	fbe45783          	lhu	x15,-66(x8)
   123d2:	fef41723          	sh	x15,-18(x8)
   123d6:	fe043783          	ld	x15,-32(x8)
   123da:	0785                	c.addi	x15,1
   123dc:	fef43023          	sd	x15,-32(x8)
   123e0:	fe043703          	ld	x14,-32(x8)
   123e4:	fd043783          	ld	x15,-48(x8)
   123e8:	faf768e3          	bltu	x14,x15,12398 <_ZL16tiled_vector_minPsPKsm+0x7a>
   123ec:	fd843783          	ld	x15,-40(x8)
   123f0:	c3b9                	c.beqz	x15,12436 <_ZL16tiled_vector_minPsPKsm+0x118>
   123f2:	f9843703          	ld	x14,-104(x8)
   123f6:	fd843783          	ld	x15,-40(x8)
   123fa:	40f707b3          	sub	x15,x14,x15
   123fe:	fcf43423          	sd	x15,-56(x8)
   12402:	fc843783          	ld	x15,-56(x8)
   12406:	0786                	c.slli	x15,0x1
   12408:	fa043703          	ld	x14,-96(x8)
   1240c:	973e                	c.add	x14,x15
   1240e:	fbe40793          	addi	x15,x8,-66
   12412:	fd843603          	ld	x12,-40(x8)
   12416:	85ba                	c.mv	x11,x14
   12418:	853e                	c.mv	x10,x15
   1241a:	e9fff0ef          	jal	x1,122b8 <_ZL14fit_vector_minPsPKsm>
   1241e:	fbe41783          	lh	x15,-66(x8)
   12422:	fee41703          	lh	x14,-18(x8)
   12426:	2701                	c.addiw	x14,0
   12428:	2781                	c.addiw	x15,0
   1242a:	00e7d663          	bge	x15,x14,12436 <_ZL16tiled_vector_minPsPKsm+0x118>
   1242e:	fbe45783          	lhu	x15,-66(x8)
   12432:	fef41723          	sh	x15,-18(x8)
   12436:	fa843783          	ld	x15,-88(x8)
   1243a:	fee45703          	lhu	x14,-18(x8)
   1243e:	00e79023          	sh	x14,0(x15) # ffffffffffff8000 <__BSS_END__+0xfffffffffffc7890>
   12442:	0001                	c.addi	x0,0
   12444:	70a6                	c.ldsp	x1,104(x2)
   12446:	7406                	c.ldsp	x8,96(x2)
   12448:	6165                	c.addi16sp	x2,112
   1244a:	8082                	c.jr	x1

000000000001244c <_ZL23tiled_matrix_vector_minPsPKsmm>:
   1244c:	7139                	c.addi16sp	x2,-64
   1244e:	fc06                	c.sdsp	x1,56(x2)
   12450:	f822                	c.sdsp	x8,48(x2)
   12452:	0080                	c.addi4spn	x8,x2,64
   12454:	fca43c23          	sd	x10,-40(x8)
   12458:	fcb43823          	sd	x11,-48(x8)
   1245c:	fcc43423          	sd	x12,-56(x8)
   12460:	fcd43023          	sd	x13,-64(x8)
   12464:	fd843783          	ld	x15,-40(x8)
   12468:	e395                	c.bnez	x15,1248c <_ZL23tiled_matrix_vector_minPsPKsmm+0x40>
   1246a:	000297b7          	lui	x15,0x29
   1246e:	c6078513          	addi	x10,x15,-928 # 28c60 <__clzdi2+0xc9e>
   12472:	6c80a0ef          	jal	x1,1cb3a <puts>
   12476:	fc843583          	ld	x11,-56(x8)
   1247a:	000287b7          	lui	x15,0x28
   1247e:	13078513          	addi	x10,x15,304 # 28130 <__clzdi2+0x16e>
   12482:	5400a0ef          	jal	x1,1c9c2 <printf>
   12486:	557d                	c.li	x10,-1
   12488:	6ba090ef          	jal	x1,1bb42 <exit>
   1248c:	fe043423          	sd	x0,-24(x8)
   12490:	a82d                	c.j	124ca <_ZL23tiled_matrix_vector_minPsPKsmm+0x7e>
   12492:	fe843783          	ld	x15,-24(x8)
   12496:	0786                	c.slli	x15,0x1
   12498:	fd843703          	ld	x14,-40(x8)
   1249c:	00f706b3          	add	x13,x14,x15
   124a0:	fe843703          	ld	x14,-24(x8)
   124a4:	fc043783          	ld	x15,-64(x8)
   124a8:	02f707b3          	mul	x15,x14,x15
   124ac:	0786                	c.slli	x15,0x1
   124ae:	fd043703          	ld	x14,-48(x8)
   124b2:	97ba                	c.add	x15,x14
   124b4:	fc043603          	ld	x12,-64(x8)
   124b8:	85be                	c.mv	x11,x15
   124ba:	8536                	c.mv	x10,x13
   124bc:	e63ff0ef          	jal	x1,1231e <_ZL16tiled_vector_minPsPKsm>
   124c0:	fe843783          	ld	x15,-24(x8)
   124c4:	0785                	c.addi	x15,1
   124c6:	fef43423          	sd	x15,-24(x8)
   124ca:	fe843703          	ld	x14,-24(x8)
   124ce:	fc843783          	ld	x15,-56(x8)
   124d2:	fcf760e3          	bltu	x14,x15,12492 <_ZL23tiled_matrix_vector_minPsPKsmm+0x46>
   124d6:	0001                	c.addi	x0,0
   124d8:	0001                	c.addi	x0,0
   124da:	70e2                	c.ldsp	x1,56(x2)
   124dc:	7442                	c.ldsp	x8,48(x2)
   124de:	6121                	c.addi16sp	x2,64
   124e0:	8082                	c.jr	x1

00000000000124e2 <_ZL18fit_vector_dropoutPsPKssm>:
   124e2:	7179                	c.addi16sp	x2,-48
   124e4:	f406                	c.sdsp	x1,40(x2)
   124e6:	f022                	c.sdsp	x8,32(x2)
   124e8:	1800                	c.addi4spn	x8,x2,48
   124ea:	fea43423          	sd	x10,-24(x8)
   124ee:	feb43023          	sd	x11,-32(x8)
   124f2:	87b2                	c.mv	x15,x12
   124f4:	fcd43823          	sd	x13,-48(x8)
   124f8:	fcf41f23          	sh	x15,-34(x8)
   124fc:	fd043703          	ld	x14,-48(x8)
   12500:	02000793          	addi	x15,x0,32
   12504:	02e7f263          	bgeu	x15,x14,12528 <_ZL18fit_vector_dropoutPsPKssm+0x46>
   12508:	000287b7          	lui	x15,0x28
   1250c:	1d078693          	addi	x13,x15,464 # 281d0 <__clzdi2+0x20e>
   12510:	000297b7          	lui	x15,0x29
   12514:	cb878613          	addi	x12,x15,-840 # 28cb8 <__clzdi2+0xcf6>
   12518:	23d00593          	addi	x11,x0,573
   1251c:	000287b7          	lui	x15,0x28
   12520:	0c878513          	addi	x10,x15,200 # 280c8 <__clzdi2+0x106>
   12524:	5ca090ef          	jal	x1,1baee <__assert_func>
   12528:	fe043783          	ld	x15,-32(x8)
   1252c:	1007a58b          	vld.fiona	x11,x15
   12530:	fd043783          	ld	x15,-48(x8)
   12534:	18f7b00b          	config.fiona	x0,x15,x15
   12538:	47ad                	c.li	x15,11
   1253a:	fde45703          	lhu	x14,-34(x8)
   1253e:	18e7b08b          	config.fiona	x1,x15,x14
   12542:	0205858b          	add.v.fiona	x11,x11,x0
   12546:	47ad                	c.li	x15,11
   12548:	577d                	c.li	x14,-1
   1254a:	18e7b08b          	config.fiona	x1,x15,x14
   1254e:	0001                	c.addi	x0,0
   12550:	70a2                	c.ldsp	x1,40(x2)
   12552:	7402                	c.ldsp	x8,32(x2)
   12554:	6145                	c.addi16sp	x2,48
   12556:	8082                	c.jr	x1

0000000000012558 <_ZL13vector_argmaxPsPKsm>:
   12558:	7139                	c.addi16sp	x2,-64
   1255a:	fc06                	c.sdsp	x1,56(x2)
   1255c:	f822                	c.sdsp	x8,48(x2)
   1255e:	0080                	c.addi4spn	x8,x2,64
   12560:	fca43c23          	sd	x10,-40(x8)
   12564:	fcb43823          	sd	x11,-48(x8)
   12568:	fcc43423          	sd	x12,-56(x8)
   1256c:	fe640793          	addi	x15,x8,-26
   12570:	fc843603          	ld	x12,-56(x8)
   12574:	fd043583          	ld	x11,-48(x8)
   12578:	853e                	c.mv	x10,x15
   1257a:	b7fff0ef          	jal	x1,120f8 <_ZL16tiled_vector_maxPsPKsm>
   1257e:	fe043423          	sd	x0,-24(x8)
   12582:	fe043423          	sd	x0,-24(x8)
   12586:	a025                	c.j	125ae <_ZL13vector_argmaxPsPKsm+0x56>
   12588:	fe843783          	ld	x15,-24(x8)
   1258c:	0786                	c.slli	x15,0x1
   1258e:	fd043703          	ld	x14,-48(x8)
   12592:	97ba                	c.add	x15,x14
   12594:	00079703          	lh	x14,0(x15)
   12598:	fe641783          	lh	x15,-26(x8)
   1259c:	2701                	c.addiw	x14,0
   1259e:	2781                	c.addiw	x15,0
   125a0:	00f70e63          	beq	x14,x15,125bc <_ZL13vector_argmaxPsPKsm+0x64>
   125a4:	fe843783          	ld	x15,-24(x8)
   125a8:	0785                	c.addi	x15,1
   125aa:	fef43423          	sd	x15,-24(x8)
   125ae:	fe843703          	ld	x14,-24(x8)
   125b2:	fc843783          	ld	x15,-56(x8)
   125b6:	fcf769e3          	bltu	x14,x15,12588 <_ZL13vector_argmaxPsPKsm+0x30>
   125ba:	a011                	c.j	125be <_ZL13vector_argmaxPsPKsm+0x66>
   125bc:	0001                	c.addi	x0,0
   125be:	fe843783          	ld	x15,-24(x8)
   125c2:	0107971b          	slliw	x14,x15,0x10
   125c6:	4107571b          	sraiw	x14,x14,0x10
   125ca:	fd843783          	ld	x15,-40(x8)
   125ce:	00e79023          	sh	x14,0(x15)
   125d2:	0001                	c.addi	x0,0
   125d4:	70e2                	c.ldsp	x1,56(x2)
   125d6:	7442                	c.ldsp	x8,48(x2)
   125d8:	6121                	c.addi16sp	x2,64
   125da:	8082                	c.jr	x1

00000000000125dc <_ZL20matrix_vector_argmaxPsPKsmm>:
   125dc:	7139                	c.addi16sp	x2,-64
   125de:	fc06                	c.sdsp	x1,56(x2)
   125e0:	f822                	c.sdsp	x8,48(x2)
   125e2:	0080                	c.addi4spn	x8,x2,64
   125e4:	fca43c23          	sd	x10,-40(x8)
   125e8:	fcb43823          	sd	x11,-48(x8)
   125ec:	fcc43423          	sd	x12,-56(x8)
   125f0:	fcd43023          	sd	x13,-64(x8)
   125f4:	fd843783          	ld	x15,-40(x8)
   125f8:	e395                	c.bnez	x15,1261c <_ZL20matrix_vector_argmaxPsPKsmm+0x40>
   125fa:	000297b7          	lui	x15,0x29
   125fe:	cf878513          	addi	x10,x15,-776 # 28cf8 <__clzdi2+0xd36>
   12602:	5380a0ef          	jal	x1,1cb3a <puts>
   12606:	fc843583          	ld	x11,-56(x8)
   1260a:	000287b7          	lui	x15,0x28
   1260e:	13078513          	addi	x10,x15,304 # 28130 <__clzdi2+0x16e>
   12612:	3b00a0ef          	jal	x1,1c9c2 <printf>
   12616:	557d                	c.li	x10,-1
   12618:	52a090ef          	jal	x1,1bb42 <exit>
   1261c:	fe043423          	sd	x0,-24(x8)
   12620:	a82d                	c.j	1265a <_ZL20matrix_vector_argmaxPsPKsmm+0x7e>
   12622:	fe843783          	ld	x15,-24(x8)
   12626:	0786                	c.slli	x15,0x1
   12628:	fd843703          	ld	x14,-40(x8)
   1262c:	00f706b3          	add	x13,x14,x15
   12630:	fe843703          	ld	x14,-24(x8)
   12634:	fc043783          	ld	x15,-64(x8)
   12638:	02f707b3          	mul	x15,x14,x15
   1263c:	0786                	c.slli	x15,0x1
   1263e:	fd043703          	ld	x14,-48(x8)
   12642:	97ba                	c.add	x15,x14
   12644:	fc043603          	ld	x12,-64(x8)
   12648:	85be                	c.mv	x11,x15
   1264a:	8536                	c.mv	x10,x13
   1264c:	f0dff0ef          	jal	x1,12558 <_ZL13vector_argmaxPsPKsm>
   12650:	fe843783          	ld	x15,-24(x8)
   12654:	0785                	c.addi	x15,1
   12656:	fef43423          	sd	x15,-24(x8)
   1265a:	fe843703          	ld	x14,-24(x8)
   1265e:	fc843783          	ld	x15,-56(x8)
   12662:	fcf760e3          	bltu	x14,x15,12622 <_ZL20matrix_vector_argmaxPsPKsmm+0x46>
   12666:	0001                	c.addi	x0,0
   12668:	0001                	c.addi	x0,0
   1266a:	70e2                	c.ldsp	x1,56(x2)
   1266c:	7442                	c.ldsp	x8,48(x2)
   1266e:	6121                	c.addi16sp	x2,64
   12670:	8082                	c.jr	x1

0000000000012672 <_ZL12vector_shiftPsmmb>:
   12672:	7139                	c.addi16sp	x2,-64
   12674:	fc06                	c.sdsp	x1,56(x2)
   12676:	f822                	c.sdsp	x8,48(x2)
   12678:	0080                	c.addi4spn	x8,x2,64
   1267a:	fca43c23          	sd	x10,-40(x8)
   1267e:	fcb43823          	sd	x11,-48(x8)
   12682:	fcc43423          	sd	x12,-56(x8)
   12686:	87b6                	c.mv	x15,x13
   12688:	fcf403a3          	sb	x15,-57(x8)
   1268c:	fc843783          	ld	x15,-56(x8)
   12690:	c3f5                	c.beqz	x15,12774 <_ZL12vector_shiftPsmmb+0x102>
   12692:	fd843783          	ld	x15,-40(x8)
   12696:	e395                	c.bnez	x15,126ba <_ZL12vector_shiftPsmmb+0x48>
   12698:	000297b7          	lui	x15,0x29
   1269c:	d5078513          	addi	x10,x15,-688 # 28d50 <__clzdi2+0xd8e>
   126a0:	49a0a0ef          	jal	x1,1cb3a <puts>
   126a4:	fd043583          	ld	x11,-48(x8)
   126a8:	000297b7          	lui	x15,0x29
   126ac:	da078513          	addi	x10,x15,-608 # 28da0 <__clzdi2+0xdde>
   126b0:	3120a0ef          	jal	x1,1c9c2 <printf>
   126b4:	557d                	c.li	x10,-1
   126b6:	48c090ef          	jal	x1,1bb42 <exit>
   126ba:	fc744783          	lbu	x15,-57(x8)
   126be:	0ff7f793          	andi	x15,x15,255
   126c2:	cfa9                	c.beqz	x15,1271c <_ZL12vector_shiftPsmmb+0xaa>
   126c4:	fe043423          	sd	x0,-24(x8)
   126c8:	a099                	c.j	1270e <_ZL12vector_shiftPsmmb+0x9c>
   126ca:	fe843783          	ld	x15,-24(x8)
   126ce:	0786                	c.slli	x15,0x1
   126d0:	fd843703          	ld	x14,-40(x8)
   126d4:	97ba                	c.add	x15,x14
   126d6:	00079783          	lh	x15,0(x15)
   126da:	0007871b          	addiw	x14,x15,0
   126de:	fc843783          	ld	x15,-56(x8)
   126e2:	2781                	c.addiw	x15,0
   126e4:	40f757bb          	sraw	x15,x14,x15
   126e8:	0007869b          	addiw	x13,x15,0
   126ec:	fe843783          	ld	x15,-24(x8)
   126f0:	0786                	c.slli	x15,0x1
   126f2:	fd843703          	ld	x14,-40(x8)
   126f6:	97ba                	c.add	x15,x14
   126f8:	0106971b          	slliw	x14,x13,0x10
   126fc:	4107571b          	sraiw	x14,x14,0x10
   12700:	00e79023          	sh	x14,0(x15)
   12704:	fe843783          	ld	x15,-24(x8)
   12708:	0785                	c.addi	x15,1
   1270a:	fef43423          	sd	x15,-24(x8)
   1270e:	fe843703          	ld	x14,-24(x8)
   12712:	fd043783          	ld	x15,-48(x8)
   12716:	faf76ae3          	bltu	x14,x15,126ca <_ZL12vector_shiftPsmmb+0x58>
   1271a:	a8b1                	c.j	12776 <_ZL12vector_shiftPsmmb+0x104>
   1271c:	fe043023          	sd	x0,-32(x8)
   12720:	a099                	c.j	12766 <_ZL12vector_shiftPsmmb+0xf4>
   12722:	fe043783          	ld	x15,-32(x8)
   12726:	0786                	c.slli	x15,0x1
   12728:	fd843703          	ld	x14,-40(x8)
   1272c:	97ba                	c.add	x15,x14
   1272e:	00079783          	lh	x15,0(x15)
   12732:	0007871b          	addiw	x14,x15,0
   12736:	fc843783          	ld	x15,-56(x8)
   1273a:	2781                	c.addiw	x15,0
   1273c:	00f717bb          	sllw	x15,x14,x15
   12740:	0007869b          	addiw	x13,x15,0
   12744:	fe043783          	ld	x15,-32(x8)
   12748:	0786                	c.slli	x15,0x1
   1274a:	fd843703          	ld	x14,-40(x8)
   1274e:	97ba                	c.add	x15,x14
   12750:	0106971b          	slliw	x14,x13,0x10
   12754:	4107571b          	sraiw	x14,x14,0x10
   12758:	00e79023          	sh	x14,0(x15)
   1275c:	fe043783          	ld	x15,-32(x8)
   12760:	0785                	c.addi	x15,1
   12762:	fef43023          	sd	x15,-32(x8)
   12766:	fe043703          	ld	x14,-32(x8)
   1276a:	fd043783          	ld	x15,-48(x8)
   1276e:	faf76ae3          	bltu	x14,x15,12722 <_ZL12vector_shiftPsmmb+0xb0>
   12772:	a011                	c.j	12776 <_ZL12vector_shiftPsmmb+0x104>
   12774:	0001                	c.addi	x0,0
   12776:	70e2                	c.ldsp	x1,56(x2)
   12778:	7442                	c.ldsp	x8,48(x2)
   1277a:	6121                	c.addi16sp	x2,64
   1277c:	8082                	c.jr	x1

000000000001277e <_ZL13mat_transposePsPKsmm>:
   1277e:	715d                	c.addi16sp	x2,-80
   12780:	e486                	c.sdsp	x1,72(x2)
   12782:	e0a2                	c.sdsp	x8,64(x2)
   12784:	0880                	c.addi4spn	x8,x2,80
   12786:	fca43423          	sd	x10,-56(x8)
   1278a:	fcb43023          	sd	x11,-64(x8)
   1278e:	fac43c23          	sd	x12,-72(x8)
   12792:	fad43823          	sd	x13,-80(x8)
   12796:	fc843783          	ld	x15,-56(x8)
   1279a:	e785                	c.bnez	x15,127c2 <_ZL13mat_transposePsPKsmm+0x44>
   1279c:	000297b7          	lui	x15,0x29
   127a0:	dc078513          	addi	x10,x15,-576 # 28dc0 <__clzdi2+0xdfe>
   127a4:	3960a0ef          	jal	x1,1cb3a <puts>
   127a8:	fb843603          	ld	x12,-72(x8)
   127ac:	fb043583          	ld	x11,-80(x8)
   127b0:	000297b7          	lui	x15,0x29
   127b4:	e1078513          	addi	x10,x15,-496 # 28e10 <__clzdi2+0xe4e>
   127b8:	20a0a0ef          	jal	x1,1c9c2 <printf>
   127bc:	557d                	c.li	x10,-1
   127be:	384090ef          	jal	x1,1bb42 <exit>
   127c2:	fe043423          	sd	x0,-24(x8)
   127c6:	a895                	c.j	1283a <_ZL13mat_transposePsPKsmm+0xbc>
   127c8:	fe043023          	sd	x0,-32(x8)
   127cc:	a8a1                	c.j	12824 <_ZL13mat_transposePsPKsmm+0xa6>
   127ce:	fe843703          	ld	x14,-24(x8)
   127d2:	fb043783          	ld	x15,-80(x8)
   127d6:	02f707b3          	mul	x15,x14,x15
   127da:	fe043703          	ld	x14,-32(x8)
   127de:	97ba                	c.add	x15,x14
   127e0:	fcf43c23          	sd	x15,-40(x8)
   127e4:	fe043703          	ld	x14,-32(x8)
   127e8:	fb843783          	ld	x15,-72(x8)
   127ec:	02f707b3          	mul	x15,x14,x15
   127f0:	fe843703          	ld	x14,-24(x8)
   127f4:	97ba                	c.add	x15,x14
   127f6:	fcf43823          	sd	x15,-48(x8)
   127fa:	fd843783          	ld	x15,-40(x8)
   127fe:	0786                	c.slli	x15,0x1
   12800:	fc043703          	ld	x14,-64(x8)
   12804:	973e                	c.add	x14,x15
   12806:	fd043783          	ld	x15,-48(x8)
   1280a:	0786                	c.slli	x15,0x1
   1280c:	fc843683          	ld	x13,-56(x8)
   12810:	97b6                	c.add	x15,x13
   12812:	00071703          	lh	x14,0(x14)
   12816:	00e79023          	sh	x14,0(x15)
   1281a:	fe043783          	ld	x15,-32(x8)
   1281e:	0785                	c.addi	x15,1
   12820:	fef43023          	sd	x15,-32(x8)
   12824:	fe043703          	ld	x14,-32(x8)
   12828:	fb043783          	ld	x15,-80(x8)
   1282c:	faf761e3          	bltu	x14,x15,127ce <_ZL13mat_transposePsPKsmm+0x50>
   12830:	fe843783          	ld	x15,-24(x8)
   12834:	0785                	c.addi	x15,1
   12836:	fef43423          	sd	x15,-24(x8)
   1283a:	fe843703          	ld	x14,-24(x8)
   1283e:	fb843783          	ld	x15,-72(x8)
   12842:	f8f763e3          	bltu	x14,x15,127c8 <_ZL13mat_transposePsPKsmm+0x4a>
   12846:	0001                	c.addi	x0,0
   12848:	0001                	c.addi	x0,0
   1284a:	60a6                	c.ldsp	x1,72(x2)
   1284c:	6406                	c.ldsp	x8,64(x2)
   1284e:	6161                	c.addi16sp	x2,80
   12850:	8082                	c.jr	x1

0000000000012852 <_ZL12vector_equalPsPKsS1_m>:
   12852:	7139                	c.addi16sp	x2,-64
   12854:	fc06                	c.sdsp	x1,56(x2)
   12856:	f822                	c.sdsp	x8,48(x2)
   12858:	0080                	c.addi4spn	x8,x2,64
   1285a:	fca43c23          	sd	x10,-40(x8)
   1285e:	fcb43823          	sd	x11,-48(x8)
   12862:	fcc43423          	sd	x12,-56(x8)
   12866:	fcd43023          	sd	x13,-64(x8)
   1286a:	fd843783          	ld	x15,-40(x8)
   1286e:	e395                	c.bnez	x15,12892 <_ZL12vector_equalPsPKsS1_m+0x40>
   12870:	000297b7          	lui	x15,0x29
   12874:	e3878513          	addi	x10,x15,-456 # 28e38 <__clzdi2+0xe76>
   12878:	2c20a0ef          	jal	x1,1cb3a <puts>
   1287c:	fc043583          	ld	x11,-64(x8)
   12880:	000297b7          	lui	x15,0x29
   12884:	e8878513          	addi	x10,x15,-376 # 28e88 <__clzdi2+0xec6>
   12888:	13a0a0ef          	jal	x1,1c9c2 <printf>
   1288c:	557d                	c.li	x10,-1
   1288e:	2b4090ef          	jal	x1,1bb42 <exit>
   12892:	fe043423          	sd	x0,-24(x8)
   12896:	a8a9                	c.j	128f0 <_ZL12vector_equalPsPKsS1_m+0x9e>
   12898:	fe843783          	ld	x15,-24(x8)
   1289c:	0786                	c.slli	x15,0x1
   1289e:	fd043703          	ld	x14,-48(x8)
   128a2:	97ba                	c.add	x15,x14
   128a4:	00079683          	lh	x13,0(x15)
   128a8:	fe843783          	ld	x15,-24(x8)
   128ac:	0786                	c.slli	x15,0x1
   128ae:	fc843703          	ld	x14,-56(x8)
   128b2:	97ba                	c.add	x15,x14
   128b4:	00079783          	lh	x15,0(x15)
   128b8:	0006871b          	addiw	x14,x13,0
   128bc:	2781                	c.addiw	x15,0
   128be:	00f71c63          	bne	x14,x15,128d6 <_ZL12vector_equalPsPKsS1_m+0x84>
   128c2:	fe843783          	ld	x15,-24(x8)
   128c6:	0786                	c.slli	x15,0x1
   128c8:	fd843703          	ld	x14,-40(x8)
   128cc:	97ba                	c.add	x15,x14
   128ce:	4705                	c.li	x14,1
   128d0:	00e79023          	sh	x14,0(x15)
   128d4:	a809                	c.j	128e6 <_ZL12vector_equalPsPKsS1_m+0x94>
   128d6:	fe843783          	ld	x15,-24(x8)
   128da:	0786                	c.slli	x15,0x1
   128dc:	fd843703          	ld	x14,-40(x8)
   128e0:	97ba                	c.add	x15,x14
   128e2:	00079023          	sh	x0,0(x15)
   128e6:	fe843783          	ld	x15,-24(x8)
   128ea:	0785                	c.addi	x15,1
   128ec:	fef43423          	sd	x15,-24(x8)
   128f0:	fe843703          	ld	x14,-24(x8)
   128f4:	fc043783          	ld	x15,-64(x8)
   128f8:	faf760e3          	bltu	x14,x15,12898 <_ZL12vector_equalPsPKsS1_m+0x46>
   128fc:	0001                	c.addi	x0,0
   128fe:	0001                	c.addi	x0,0
   12900:	70e2                	c.ldsp	x1,56(x2)
   12902:	7442                	c.ldsp	x8,48(x2)
   12904:	6121                	c.addi16sp	x2,64
   12906:	8082                	c.jr	x1

0000000000012908 <_ZL10vector_sumPsPKsm>:
   12908:	7139                	c.addi16sp	x2,-64
   1290a:	fc06                	c.sdsp	x1,56(x2)
   1290c:	f822                	c.sdsp	x8,48(x2)
   1290e:	0080                	c.addi4spn	x8,x2,64
   12910:	fca43c23          	sd	x10,-40(x8)
   12914:	fcb43823          	sd	x11,-48(x8)
   12918:	fcc43423          	sd	x12,-56(x8)
   1291c:	fd843783          	ld	x15,-40(x8)
   12920:	e385                	c.bnez	x15,12940 <_ZL10vector_sumPsPKsm+0x38>
   12922:	000297b7          	lui	x15,0x29
   12926:	eb078513          	addi	x10,x15,-336 # 28eb0 <__clzdi2+0xeee>
   1292a:	2100a0ef          	jal	x1,1cb3a <puts>
   1292e:	000297b7          	lui	x15,0x29
   12932:	b6878513          	addi	x10,x15,-1176 # 28b68 <__clzdi2+0xba6>
   12936:	2040a0ef          	jal	x1,1cb3a <puts>
   1293a:	557d                	c.li	x10,-1
   1293c:	206090ef          	jal	x1,1bb42 <exit>
   12940:	fe041723          	sh	x0,-18(x8)
   12944:	fe043023          	sd	x0,-32(x8)
   12948:	a805                	c.j	12978 <_ZL10vector_sumPsPKsm+0x70>
   1294a:	fe043783          	ld	x15,-32(x8)
   1294e:	0786                	c.slli	x15,0x1
   12950:	fd043703          	ld	x14,-48(x8)
   12954:	97ba                	c.add	x15,x14
   12956:	00079783          	lh	x15,0(x15)
   1295a:	03079713          	slli	x14,x15,0x30
   1295e:	9341                	c.srli	x14,0x30
   12960:	fee45783          	lhu	x15,-18(x8)
   12964:	9fb9                	c.addw	x15,x14
   12966:	17c2                	c.slli	x15,0x30
   12968:	93c1                	c.srli	x15,0x30
   1296a:	fef41723          	sh	x15,-18(x8)
   1296e:	fe043783          	ld	x15,-32(x8)
   12972:	0785                	c.addi	x15,1
   12974:	fef43023          	sd	x15,-32(x8)
   12978:	fe043703          	ld	x14,-32(x8)
   1297c:	fc843783          	ld	x15,-56(x8)
   12980:	fcf765e3          	bltu	x14,x15,1294a <_ZL10vector_sumPsPKsm+0x42>
   12984:	fd843783          	ld	x15,-40(x8)
   12988:	fee45703          	lhu	x14,-18(x8)
   1298c:	00e79023          	sh	x14,0(x15)
   12990:	0001                	c.addi	x0,0
   12992:	70e2                	c.ldsp	x1,56(x2)
   12994:	7442                	c.ldsp	x8,48(x2)
   12996:	6121                	c.addi16sp	x2,64
   12998:	8082                	c.jr	x1

000000000001299a <_ZL11vector_meanPsPKsm>:
   1299a:	7139                	c.addi16sp	x2,-64
   1299c:	fc06                	c.sdsp	x1,56(x2)
   1299e:	f822                	c.sdsp	x8,48(x2)
   129a0:	0080                	c.addi4spn	x8,x2,64
   129a2:	fca43c23          	sd	x10,-40(x8)
   129a6:	fcb43823          	sd	x11,-48(x8)
   129aa:	fcc43423          	sd	x12,-56(x8)
   129ae:	fd843783          	ld	x15,-40(x8)
   129b2:	e385                	c.bnez	x15,129d2 <_ZL11vector_meanPsPKsm+0x38>
   129b4:	000297b7          	lui	x15,0x29
   129b8:	f0078513          	addi	x10,x15,-256 # 28f00 <__clzdi2+0xf3e>
   129bc:	17e0a0ef          	jal	x1,1cb3a <puts>
   129c0:	000297b7          	lui	x15,0x29
   129c4:	b6878513          	addi	x10,x15,-1176 # 28b68 <__clzdi2+0xba6>
   129c8:	1720a0ef          	jal	x1,1cb3a <puts>
   129cc:	557d                	c.li	x10,-1
   129ce:	174090ef          	jal	x1,1bb42 <exit>
   129d2:	fe041723          	sh	x0,-18(x8)
   129d6:	fee40793          	addi	x15,x8,-18
   129da:	fc843603          	ld	x12,-56(x8)
   129de:	fd043583          	ld	x11,-48(x8)
   129e2:	853e                	c.mv	x10,x15
   129e4:	f25ff0ef          	jal	x1,12908 <_ZL10vector_sumPsPKsm>
   129e8:	fee41783          	lh	x15,-18(x8)
   129ec:	873e                	c.mv	x14,x15
   129ee:	fc843783          	ld	x15,-56(x8)
   129f2:	02f757b3          	divu	x15,x14,x15
   129f6:	0107971b          	slliw	x14,x15,0x10
   129fa:	4107571b          	sraiw	x14,x14,0x10
   129fe:	fd843783          	ld	x15,-40(x8)
   12a02:	00e79023          	sh	x14,0(x15)
   12a06:	0001                	c.addi	x0,0
   12a08:	70e2                	c.ldsp	x1,56(x2)
   12a0a:	7442                	c.ldsp	x8,48(x2)
   12a0c:	6121                	c.addi16sp	x2,64
   12a0e:	8082                	c.jr	x1

0000000000012a10 <_ZL10vector_varPsPKsm>:
   12a10:	7139                	c.addi16sp	x2,-64
   12a12:	fc06                	c.sdsp	x1,56(x2)
   12a14:	f822                	c.sdsp	x8,48(x2)
   12a16:	0080                	c.addi4spn	x8,x2,64
   12a18:	fca43c23          	sd	x10,-40(x8)
   12a1c:	fcb43823          	sd	x11,-48(x8)
   12a20:	fcc43423          	sd	x12,-56(x8)
   12a24:	fd843783          	ld	x15,-40(x8)
   12a28:	e385                	c.bnez	x15,12a48 <_ZL10vector_varPsPKsm+0x38>
   12a2a:	000297b7          	lui	x15,0x29
   12a2e:	f5078513          	addi	x10,x15,-176 # 28f50 <__clzdi2+0xf8e>
   12a32:	1080a0ef          	jal	x1,1cb3a <puts>
   12a36:	000297b7          	lui	x15,0x29
   12a3a:	b6878513          	addi	x10,x15,-1176 # 28b68 <__clzdi2+0xba6>
   12a3e:	0fc0a0ef          	jal	x1,1cb3a <puts>
   12a42:	557d                	c.li	x10,-1
   12a44:	0fe090ef          	jal	x1,1bb42 <exit>
   12a48:	fe041323          	sh	x0,-26(x8)
   12a4c:	fc843783          	ld	x15,-56(x8)
   12a50:	574d                	c.li	x14,-13
   12a52:	8309                	c.srli	x14,0x2
   12a54:	00f76463          	bltu	x14,x15,12a5c <_ZL10vector_varPsPKsm+0x4c>
   12a58:	0786                	c.slli	x15,0x1
   12a5a:	a019                	c.j	12a60 <_ZL10vector_varPsPKsm+0x50>
   12a5c:	ea0fd0ef          	jal	x1,100fc <__cxa_throw_bad_array_new_length>
   12a60:	853e                	c.mv	x10,x15
   12a62:	2f2010ef          	jal	x1,13d54 <_Znam>
   12a66:	87aa                	c.mv	x15,x10
   12a68:	fef43423          	sd	x15,-24(x8)
   12a6c:	fe640793          	addi	x15,x8,-26
   12a70:	fc843603          	ld	x12,-56(x8)
   12a74:	fd043583          	ld	x11,-48(x8)
   12a78:	853e                	c.mv	x10,x15
   12a7a:	f21ff0ef          	jal	x1,1299a <_ZL11vector_meanPsPKsm>
   12a7e:	fe641783          	lh	x15,-26(x8)
   12a82:	fc843683          	ld	x13,-56(x8)
   12a86:	863e                	c.mv	x12,x15
   12a88:	fd043583          	ld	x11,-48(x8)
   12a8c:	fe843503          	ld	x10,-24(x8)
   12a90:	9cbfe0ef          	jal	x1,1145a <_ZL23tiled_vector_sub_scalarPsPKssm>
   12a94:	fc843683          	ld	x13,-56(x8)
   12a98:	fe843603          	ld	x12,-24(x8)
   12a9c:	fe843583          	ld	x11,-24(x8)
   12aa0:	fd843503          	ld	x10,-40(x8)
   12aa4:	832fe0ef          	jal	x1,10ad6 <_ZL13tiled_dotprodPsPKsS1_m>
   12aa8:	0001                	c.addi	x0,0
   12aaa:	70e2                	c.ldsp	x1,56(x2)
   12aac:	7442                	c.ldsp	x8,48(x2)
   12aae:	6121                	c.addi16sp	x2,64
   12ab0:	8082                	c.jr	x1

0000000000012ab2 <_ZL14vector_softmaxPsPKsms>:
   12ab2:	715d                	c.addi16sp	x2,-80
   12ab4:	e486                	c.sdsp	x1,72(x2)
   12ab6:	e0a2                	c.sdsp	x8,64(x2)
   12ab8:	0880                	c.addi4spn	x8,x2,80
   12aba:	fca43423          	sd	x10,-56(x8)
   12abe:	fcb43023          	sd	x11,-64(x8)
   12ac2:	fac43c23          	sd	x12,-72(x8)
   12ac6:	87b6                	c.mv	x15,x13
   12ac8:	faf41b23          	sh	x15,-74(x8)
   12acc:	fc843783          	ld	x15,-56(x8)
   12ad0:	e385                	c.bnez	x15,12af0 <_ZL14vector_softmaxPsPKsms+0x3e>
   12ad2:	000297b7          	lui	x15,0x29
   12ad6:	fa078513          	addi	x10,x15,-96 # 28fa0 <__clzdi2+0xfde>
   12ada:	0600a0ef          	jal	x1,1cb3a <puts>
   12ade:	000297b7          	lui	x15,0x29
   12ae2:	b6878513          	addi	x10,x15,-1176 # 28b68 <__clzdi2+0xba6>
   12ae6:	0540a0ef          	jal	x1,1cb3a <puts>
   12aea:	557d                	c.li	x10,-1
   12aec:	056090ef          	jal	x1,1bb42 <exit>
   12af0:	fd640793          	addi	x15,x8,-42
   12af4:	fb843603          	ld	x12,-72(x8)
   12af8:	fc043583          	ld	x11,-64(x8)
   12afc:	853e                	c.mv	x10,x15
   12afe:	dfaff0ef          	jal	x1,120f8 <_ZL16tiled_vector_maxPsPKsm>
   12b02:	fd641783          	lh	x15,-42(x8)
   12b06:	fb843683          	ld	x13,-72(x8)
   12b0a:	863e                	c.mv	x12,x15
   12b0c:	fc043583          	ld	x11,-64(x8)
   12b10:	fc843503          	ld	x10,-56(x8)
   12b14:	947fe0ef          	jal	x1,1145a <_ZL23tiled_vector_sub_scalarPsPKssm>
   12b18:	fe043423          	sd	x0,-24(x8)
   12b1c:	fe043023          	sd	x0,-32(x8)
   12b20:	a80d                	c.j	12b52 <_ZL14vector_softmaxPsPKsms+0xa0>
   12b22:	fe043783          	ld	x15,-32(x8)
   12b26:	0786                	c.slli	x15,0x1
   12b28:	fc843703          	ld	x14,-56(x8)
   12b2c:	97ba                	c.add	x15,x14
   12b2e:	00079783          	lh	x15,0(x15)
   12b32:	853e                	c.mv	x10,x15
   12b34:	0f4010ef          	jal	x1,13c28 <_ZSt3expIsEN9__gnu_cxx11__enable_ifIXsrSt12__is_integerIT_E7__valueEdE6__typeES3_>
   12b38:	22a50753          	fsgnj.d	f14,f10,f10
   12b3c:	fe843787          	fld	f15,-24(x8)
   12b40:	02e7f7d3          	fadd.d	f15,f15,f14
   12b44:	fef43427          	fsd	f15,-24(x8)
   12b48:	fe043783          	ld	x15,-32(x8)
   12b4c:	0785                	c.addi	x15,1
   12b4e:	fef43023          	sd	x15,-32(x8)
   12b52:	fe043703          	ld	x14,-32(x8)
   12b56:	fb843783          	ld	x15,-72(x8)
   12b5a:	fcf764e3          	bltu	x14,x15,12b22 <_ZL14vector_softmaxPsPKsms+0x70>
   12b5e:	fc043c23          	sd	x0,-40(x8)
   12b62:	a891                	c.j	12bb6 <_ZL14vector_softmaxPsPKsms+0x104>
   12b64:	fd843783          	ld	x15,-40(x8)
   12b68:	0786                	c.slli	x15,0x1
   12b6a:	fc843703          	ld	x14,-56(x8)
   12b6e:	97ba                	c.add	x15,x14
   12b70:	00079783          	lh	x15,0(x15)
   12b74:	0007871b          	addiw	x14,x15,0
   12b78:	fb641783          	lh	x15,-74(x8)
   12b7c:	2781                	c.addiw	x15,0
   12b7e:	02f707bb          	mulw	x15,x14,x15
   12b82:	2781                	c.addiw	x15,0
   12b84:	d2078753          	fcvt.d.w	f14,x15
   12b88:	fe843787          	fld	f15,-24(x8)
   12b8c:	1af777d3          	fdiv.d	f15,f14,f15
   12b90:	fd843783          	ld	x15,-40(x8)
   12b94:	0786                	c.slli	x15,0x1
   12b96:	fc843703          	ld	x14,-56(x8)
   12b9a:	97ba                	c.add	x15,x14
   12b9c:	c2079753          	fcvt.w.d	x14,f15,rtz
   12ba0:	0107171b          	slliw	x14,x14,0x10
   12ba4:	4107571b          	sraiw	x14,x14,0x10
   12ba8:	00e79023          	sh	x14,0(x15)
   12bac:	fd843783          	ld	x15,-40(x8)
   12bb0:	0785                	c.addi	x15,1
   12bb2:	fcf43c23          	sd	x15,-40(x8)
   12bb6:	fd843703          	ld	x14,-40(x8)
   12bba:	fb843783          	ld	x15,-72(x8)
   12bbe:	faf763e3          	bltu	x14,x15,12b64 <_ZL14vector_softmaxPsPKsms+0xb2>
   12bc2:	0001                	c.addi	x0,0
   12bc4:	0001                	c.addi	x0,0
   12bc6:	60a6                	c.ldsp	x1,72(x2)
   12bc8:	6406                	c.ldsp	x8,64(x2)
   12bca:	6161                	c.addi16sp	x2,80
   12bcc:	8082                	c.jr	x1

0000000000012bce <_ZL10matrix_sumPsPKsmm>:
   12bce:	715d                	c.addi16sp	x2,-80
   12bd0:	e486                	c.sdsp	x1,72(x2)
   12bd2:	e0a2                	c.sdsp	x8,64(x2)
   12bd4:	0880                	c.addi4spn	x8,x2,80
   12bd6:	fca43423          	sd	x10,-56(x8)
   12bda:	fcb43023          	sd	x11,-64(x8)
   12bde:	fac43c23          	sd	x12,-72(x8)
   12be2:	fad43823          	sd	x13,-80(x8)
   12be6:	fc843783          	ld	x15,-56(x8)
   12bea:	e385                	c.bnez	x15,12c0a <_ZL10matrix_sumPsPKsmm+0x3c>
   12bec:	000297b7          	lui	x15,0x29
   12bf0:	ff078513          	addi	x10,x15,-16 # 28ff0 <__clzdi2+0x102e>
   12bf4:	747090ef          	jal	x1,1cb3a <puts>
   12bf8:	000297b7          	lui	x15,0x29
   12bfc:	b6878513          	addi	x10,x15,-1176 # 28b68 <__clzdi2+0xba6>
   12c00:	73b090ef          	jal	x1,1cb3a <puts>
   12c04:	557d                	c.li	x10,-1
   12c06:	73d080ef          	jal	x1,1bb42 <exit>
   12c0a:	fe041723          	sh	x0,-18(x8)
   12c0e:	fc041f23          	sh	x0,-34(x8)
   12c12:	fe043023          	sd	x0,-32(x8)
   12c16:	a099                	c.j	12c5c <_ZL10matrix_sumPsPKsmm+0x8e>
   12c18:	fb843703          	ld	x14,-72(x8)
   12c1c:	fe043783          	ld	x15,-32(x8)
   12c20:	02f707b3          	mul	x15,x14,x15
   12c24:	0786                	c.slli	x15,0x1
   12c26:	fc043703          	ld	x14,-64(x8)
   12c2a:	973e                	c.add	x14,x15
   12c2c:	fde40793          	addi	x15,x8,-34
   12c30:	fb043603          	ld	x12,-80(x8)
   12c34:	85ba                	c.mv	x11,x14
   12c36:	853e                	c.mv	x10,x15
   12c38:	cd1ff0ef          	jal	x1,12908 <_ZL10vector_sumPsPKsm>
   12c3c:	fee45703          	lhu	x14,-18(x8)
   12c40:	fde41783          	lh	x15,-34(x8)
   12c44:	17c2                	c.slli	x15,0x30
   12c46:	93c1                	c.srli	x15,0x30
   12c48:	9fb9                	c.addw	x15,x14
   12c4a:	17c2                	c.slli	x15,0x30
   12c4c:	93c1                	c.srli	x15,0x30
   12c4e:	fef41723          	sh	x15,-18(x8)
   12c52:	fe043783          	ld	x15,-32(x8)
   12c56:	0785                	c.addi	x15,1
   12c58:	fef43023          	sd	x15,-32(x8)
   12c5c:	fe043703          	ld	x14,-32(x8)
   12c60:	fb843783          	ld	x15,-72(x8)
   12c64:	faf76ae3          	bltu	x14,x15,12c18 <_ZL10matrix_sumPsPKsmm+0x4a>
   12c68:	fc843783          	ld	x15,-56(x8)
   12c6c:	fee45703          	lhu	x14,-18(x8)
   12c70:	00e79023          	sh	x14,0(x15)
   12c74:	0001                	c.addi	x0,0
   12c76:	60a6                	c.ldsp	x1,72(x2)
   12c78:	6406                	c.ldsp	x8,64(x2)
   12c7a:	6161                	c.addi16sp	x2,80
   12c7c:	8082                	c.jr	x1

0000000000012c7e <_ZL10matrix_sumPsPKsmmm>:
   12c7e:	711d                	c.addi16sp	x2,-96
   12c80:	ec86                	c.sdsp	x1,88(x2)
   12c82:	e8a2                	c.sdsp	x8,80(x2)
   12c84:	1080                	c.addi4spn	x8,x2,96
   12c86:	fca43423          	sd	x10,-56(x8)
   12c8a:	fcb43023          	sd	x11,-64(x8)
   12c8e:	fac43c23          	sd	x12,-72(x8)
   12c92:	fad43823          	sd	x13,-80(x8)
   12c96:	fae43423          	sd	x14,-88(x8)
   12c9a:	fc843783          	ld	x15,-56(x8)
   12c9e:	e385                	c.bnez	x15,12cbe <_ZL10matrix_sumPsPKsmmm+0x40>
   12ca0:	000297b7          	lui	x15,0x29
   12ca4:	ff078513          	addi	x10,x15,-16 # 28ff0 <__clzdi2+0x102e>
   12ca8:	693090ef          	jal	x1,1cb3a <puts>
   12cac:	000297b7          	lui	x15,0x29
   12cb0:	b6878513          	addi	x10,x15,-1176 # 28b68 <__clzdi2+0xba6>
   12cb4:	687090ef          	jal	x1,1cb3a <puts>
   12cb8:	557d                	c.li	x10,-1
   12cba:	689080ef          	jal	x1,1bb42 <exit>
   12cbe:	fe041723          	sh	x0,-18(x8)
   12cc2:	fc041f23          	sh	x0,-34(x8)
   12cc6:	fe043023          	sd	x0,-32(x8)
   12cca:	a0a9                	c.j	12d14 <_ZL10matrix_sumPsPKsmmm+0x96>
   12ccc:	fa843703          	ld	x14,-88(x8)
   12cd0:	fe043783          	ld	x15,-32(x8)
   12cd4:	02f707b3          	mul	x15,x14,x15
   12cd8:	0786                	c.slli	x15,0x1
   12cda:	fc043703          	ld	x14,-64(x8)
   12cde:	973e                	c.add	x14,x15
   12ce0:	fde40793          	addi	x15,x8,-34
   12ce4:	fb043683          	ld	x13,-80(x8)
   12ce8:	fb843603          	ld	x12,-72(x8)
   12cec:	85ba                	c.mv	x11,x14
   12cee:	853e                	c.mv	x10,x15
   12cf0:	edfff0ef          	jal	x1,12bce <_ZL10matrix_sumPsPKsmm>
   12cf4:	fee45703          	lhu	x14,-18(x8)
   12cf8:	fde41783          	lh	x15,-34(x8)
   12cfc:	17c2                	c.slli	x15,0x30
   12cfe:	93c1                	c.srli	x15,0x30
   12d00:	9fb9                	c.addw	x15,x14
   12d02:	17c2                	c.slli	x15,0x30
   12d04:	93c1                	c.srli	x15,0x30
   12d06:	fef41723          	sh	x15,-18(x8)
   12d0a:	fe043783          	ld	x15,-32(x8)
   12d0e:	0785                	c.addi	x15,1
   12d10:	fef43023          	sd	x15,-32(x8)
   12d14:	fe043703          	ld	x14,-32(x8)
   12d18:	fa843783          	ld	x15,-88(x8)
   12d1c:	faf768e3          	bltu	x14,x15,12ccc <_ZL10matrix_sumPsPKsmmm+0x4e>
   12d20:	fc843783          	ld	x15,-56(x8)
   12d24:	fee45703          	lhu	x14,-18(x8)
   12d28:	00e79023          	sh	x14,0(x15)
   12d2c:	0001                	c.addi	x0,0
   12d2e:	60e6                	c.ldsp	x1,88(x2)
   12d30:	6446                	c.ldsp	x8,80(x2)
   12d32:	6125                	c.addi16sp	x2,96
   12d34:	8082                	c.jr	x1

0000000000012d36 <_ZL11matrix_meanPsPKsmm>:
   12d36:	7139                	c.addi16sp	x2,-64
   12d38:	fc06                	c.sdsp	x1,56(x2)
   12d3a:	f822                	c.sdsp	x8,48(x2)
   12d3c:	0080                	c.addi4spn	x8,x2,64
   12d3e:	fca43c23          	sd	x10,-40(x8)
   12d42:	fcb43823          	sd	x11,-48(x8)
   12d46:	fcc43423          	sd	x12,-56(x8)
   12d4a:	fcd43023          	sd	x13,-64(x8)
   12d4e:	fd843783          	ld	x15,-40(x8)
   12d52:	e385                	c.bnez	x15,12d72 <_ZL11matrix_meanPsPKsmm+0x3c>
   12d54:	000297b7          	lui	x15,0x29
   12d58:	04078513          	addi	x10,x15,64 # 29040 <__clzdi2+0x107e>
   12d5c:	5df090ef          	jal	x1,1cb3a <puts>
   12d60:	000297b7          	lui	x15,0x29
   12d64:	b6878513          	addi	x10,x15,-1176 # 28b68 <__clzdi2+0xba6>
   12d68:	5d3090ef          	jal	x1,1cb3a <puts>
   12d6c:	557d                	c.li	x10,-1
   12d6e:	5d5080ef          	jal	x1,1bb42 <exit>
   12d72:	fe041723          	sh	x0,-18(x8)
   12d76:	fee40793          	addi	x15,x8,-18
   12d7a:	fc043683          	ld	x13,-64(x8)
   12d7e:	fc843603          	ld	x12,-56(x8)
   12d82:	fd043583          	ld	x11,-48(x8)
   12d86:	853e                	c.mv	x10,x15
   12d88:	e47ff0ef          	jal	x1,12bce <_ZL10matrix_sumPsPKsmm>
   12d8c:	fee41783          	lh	x15,-18(x8)
   12d90:	86be                	c.mv	x13,x15
   12d92:	fc843703          	ld	x14,-56(x8)
   12d96:	fc043783          	ld	x15,-64(x8)
   12d9a:	02f707b3          	mul	x15,x14,x15
   12d9e:	02f6d7b3          	divu	x15,x13,x15
   12da2:	0107971b          	slliw	x14,x15,0x10
   12da6:	4107571b          	sraiw	x14,x14,0x10
   12daa:	fd843783          	ld	x15,-40(x8)
   12dae:	00e79023          	sh	x14,0(x15)
   12db2:	0001                	c.addi	x0,0
   12db4:	70e2                	c.ldsp	x1,56(x2)
   12db6:	7442                	c.ldsp	x8,48(x2)
   12db8:	6121                	c.addi16sp	x2,64
   12dba:	8082                	c.jr	x1

0000000000012dbc <_ZL11matrix_meanPsPKsmmm>:
   12dbc:	715d                	c.addi16sp	x2,-80
   12dbe:	e486                	c.sdsp	x1,72(x2)
   12dc0:	e0a2                	c.sdsp	x8,64(x2)
   12dc2:	0880                	c.addi4spn	x8,x2,80
   12dc4:	fca43c23          	sd	x10,-40(x8)
   12dc8:	fcb43823          	sd	x11,-48(x8)
   12dcc:	fcc43423          	sd	x12,-56(x8)
   12dd0:	fcd43023          	sd	x13,-64(x8)
   12dd4:	fae43c23          	sd	x14,-72(x8)
   12dd8:	fd843783          	ld	x15,-40(x8)
   12ddc:	e385                	c.bnez	x15,12dfc <_ZL11matrix_meanPsPKsmmm+0x40>
   12dde:	000297b7          	lui	x15,0x29
   12de2:	04078513          	addi	x10,x15,64 # 29040 <__clzdi2+0x107e>
   12de6:	555090ef          	jal	x1,1cb3a <puts>
   12dea:	000297b7          	lui	x15,0x29
   12dee:	b6878513          	addi	x10,x15,-1176 # 28b68 <__clzdi2+0xba6>
   12df2:	549090ef          	jal	x1,1cb3a <puts>
   12df6:	557d                	c.li	x10,-1
   12df8:	54b080ef          	jal	x1,1bb42 <exit>
   12dfc:	fe041723          	sh	x0,-18(x8)
   12e00:	fee40793          	addi	x15,x8,-18
   12e04:	fb843703          	ld	x14,-72(x8)
   12e08:	fc043683          	ld	x13,-64(x8)
   12e0c:	fc843603          	ld	x12,-56(x8)
   12e10:	fd043583          	ld	x11,-48(x8)
   12e14:	853e                	c.mv	x10,x15
   12e16:	e69ff0ef          	jal	x1,12c7e <_ZL10matrix_sumPsPKsmmm>
   12e1a:	fee41783          	lh	x15,-18(x8)
   12e1e:	86be                	c.mv	x13,x15
   12e20:	fc843703          	ld	x14,-56(x8)
   12e24:	fc043783          	ld	x15,-64(x8)
   12e28:	02f70733          	mul	x14,x14,x15
   12e2c:	fb843783          	ld	x15,-72(x8)
   12e30:	02f707b3          	mul	x15,x14,x15
   12e34:	02f6d7b3          	divu	x15,x13,x15
   12e38:	0107971b          	slliw	x14,x15,0x10
   12e3c:	4107571b          	sraiw	x14,x14,0x10
   12e40:	fd843783          	ld	x15,-40(x8)
   12e44:	00e79023          	sh	x14,0(x15)
   12e48:	0001                	c.addi	x0,0
   12e4a:	60a6                	c.ldsp	x1,72(x2)
   12e4c:	6406                	c.ldsp	x8,64(x2)
   12e4e:	6161                	c.addi16sp	x2,80
   12e50:	8082                	c.jr	x1

0000000000012e52 <_ZL9nn_linearPsPKsS1_mmm>:
   12e52:	7139                	c.addi16sp	x2,-64
   12e54:	fc06                	c.sdsp	x1,56(x2)
   12e56:	f822                	c.sdsp	x8,48(x2)
   12e58:	0080                	c.addi4spn	x8,x2,64
   12e5a:	fea43423          	sd	x10,-24(x8)
   12e5e:	feb43023          	sd	x11,-32(x8)
   12e62:	fcc43c23          	sd	x12,-40(x8)
   12e66:	fcd43823          	sd	x13,-48(x8)
   12e6a:	fce43423          	sd	x14,-56(x8)
   12e6e:	fcf43023          	sd	x15,-64(x8)
   12e72:	fe843783          	ld	x15,-24(x8)
   12e76:	e785                	c.bnez	x15,12e9e <_ZL9nn_linearPsPKsS1_mmm+0x4c>
   12e78:	000297b7          	lui	x15,0x29
   12e7c:	09078513          	addi	x10,x15,144 # 29090 <__clzdi2+0x10ce>
   12e80:	4bb090ef          	jal	x1,1cb3a <puts>
   12e84:	fc843603          	ld	x12,-56(x8)
   12e88:	fc043583          	ld	x11,-64(x8)
   12e8c:	000297b7          	lui	x15,0x29
   12e90:	0e078513          	addi	x10,x15,224 # 290e0 <__clzdi2+0x111e>
   12e94:	32f090ef          	jal	x1,1c9c2 <printf>
   12e98:	557d                	c.li	x10,-1
   12e9a:	4a9080ef          	jal	x1,1bb42 <exit>
   12e9e:	fc043783          	ld	x15,-64(x8)
   12ea2:	fd043703          	ld	x14,-48(x8)
   12ea6:	fc843683          	ld	x13,-56(x8)
   12eaa:	fd843603          	ld	x12,-40(x8)
   12eae:	fe043583          	ld	x11,-32(x8)
   12eb2:	fe843503          	ld	x10,-24(x8)
   12eb6:	de1fd0ef          	jal	x1,10c96 <_ZL22tiled_matmul_transposePsPKsS1_mmm>
   12eba:	0001                	c.addi	x0,0
   12ebc:	70e2                	c.ldsp	x1,56(x2)
   12ebe:	7442                	c.ldsp	x8,48(x2)
   12ec0:	6121                	c.addi16sp	x2,64
   12ec2:	8082                	c.jr	x1

0000000000012ec4 <_ZL9nn_linearPsPKsS1_S1_mmm>:
   12ec4:	715d                	c.addi16sp	x2,-80
   12ec6:	e486                	c.sdsp	x1,72(x2)
   12ec8:	e0a2                	c.sdsp	x8,64(x2)
   12eca:	0880                	c.addi4spn	x8,x2,80
   12ecc:	fea43423          	sd	x10,-24(x8)
   12ed0:	feb43023          	sd	x11,-32(x8)
   12ed4:	fcc43c23          	sd	x12,-40(x8)
   12ed8:	fcd43823          	sd	x13,-48(x8)
   12edc:	fce43423          	sd	x14,-56(x8)
   12ee0:	fcf43023          	sd	x15,-64(x8)
   12ee4:	fb043c23          	sd	x16,-72(x8)
   12ee8:	fe843783          	ld	x15,-24(x8)
   12eec:	e785                	c.bnez	x15,12f14 <_ZL9nn_linearPsPKsS1_S1_mmm+0x50>
   12eee:	000297b7          	lui	x15,0x29
   12ef2:	09078513          	addi	x10,x15,144 # 29090 <__clzdi2+0x10ce>
   12ef6:	445090ef          	jal	x1,1cb3a <puts>
   12efa:	fc043603          	ld	x12,-64(x8)
   12efe:	fb843583          	ld	x11,-72(x8)
   12f02:	000297b7          	lui	x15,0x29
   12f06:	0e078513          	addi	x10,x15,224 # 290e0 <__clzdi2+0x111e>
   12f0a:	2b9090ef          	jal	x1,1c9c2 <printf>
   12f0e:	557d                	c.li	x10,-1
   12f10:	433080ef          	jal	x1,1bb42 <exit>
   12f14:	fb843783          	ld	x15,-72(x8)
   12f18:	fc843703          	ld	x14,-56(x8)
   12f1c:	fc043683          	ld	x13,-64(x8)
   12f20:	fd843603          	ld	x12,-40(x8)
   12f24:	fe043583          	ld	x11,-32(x8)
   12f28:	fe843503          	ld	x10,-24(x8)
   12f2c:	d6bfd0ef          	jal	x1,10c96 <_ZL22tiled_matmul_transposePsPKsS1_mmm>
   12f30:	fc043703          	ld	x14,-64(x8)
   12f34:	fb843683          	ld	x13,-72(x8)
   12f38:	fd043603          	ld	x12,-48(x8)
   12f3c:	fe843583          	ld	x11,-24(x8)
   12f40:	fe843503          	ld	x10,-24(x8)
   12f44:	f95fd0ef          	jal	x1,10ed8 <_ZL23tiled_matrix_vector_addPsPKsS1_mm>
   12f48:	0001                	c.addi	x0,0
   12f4a:	60a6                	c.ldsp	x1,72(x2)
   12f4c:	6406                	c.ldsp	x8,64(x2)
   12f4e:	6161                	c.addi16sp	x2,80
   12f50:	8082                	c.jr	x1

0000000000012f52 <_ZL9nn_conv2dPsPKsS1_mmmmmmmm>:
   12f52:	7125                	c.addi16sp	x2,-416
   12f54:	ef06                	c.sdsp	x1,408(x2)
   12f56:	eb22                	c.sdsp	x8,400(x2)
   12f58:	e726                	c.sdsp	x9,392(x2)
   12f5a:	e34a                	c.sdsp	x18,384(x2)
   12f5c:	fece                	c.sdsp	x19,376(x2)
   12f5e:	fad2                	c.sdsp	x20,368(x2)
   12f60:	f6d6                	c.sdsp	x21,360(x2)
   12f62:	f2da                	c.sdsp	x22,352(x2)
   12f64:	eede                	c.sdsp	x23,344(x2)
   12f66:	eae2                	c.sdsp	x24,336(x2)
   12f68:	e6e6                	c.sdsp	x25,328(x2)
   12f6a:	1300                	c.addi4spn	x8,x2,416
   12f6c:	e8a43c23          	sd	x10,-360(x8)
   12f70:	e8b43823          	sd	x11,-368(x8)
   12f74:	e8c43423          	sd	x12,-376(x8)
   12f78:	e8d43023          	sd	x13,-384(x8)
   12f7c:	e6e43c23          	sd	x14,-392(x8)
   12f80:	e6f43823          	sd	x15,-400(x8)
   12f84:	e7043423          	sd	x16,-408(x8)
   12f88:	e7143023          	sd	x17,-416(x8)
   12f8c:	878a                	c.mv	x15,x2
   12f8e:	84be                	c.mv	x9,x15
   12f90:	641c                	c.ld	x15,8(x8)
   12f92:	e38d                	c.bnez	x15,12fb4 <_ZL9nn_conv2dPsPKsS1_mmmmmmmm+0x62>
   12f94:	000297b7          	lui	x15,0x29
   12f98:	11878693          	addi	x13,x15,280 # 29118 <__clzdi2+0x1156>
   12f9c:	000297b7          	lui	x15,0x29
   12fa0:	12878613          	addi	x12,x15,296 # 29128 <__clzdi2+0x1166>
   12fa4:	02500593          	addi	x11,x0,37
   12fa8:	000297b7          	lui	x15,0x29
   12fac:	1a078513          	addi	x10,x15,416 # 291a0 <__clzdi2+0x11de>
   12fb0:	33f080ef          	jal	x1,1baee <__assert_func>
   12fb4:	e9843783          	ld	x15,-360(x8)
   12fb8:	e795                	c.bnez	x15,12fe4 <_ZL9nn_conv2dPsPKsS1_mmmmmmmm+0x92>
   12fba:	000297b7          	lui	x15,0x29
   12fbe:	1b078513          	addi	x10,x15,432 # 291b0 <__clzdi2+0x11ee>
   12fc2:	379090ef          	jal	x1,1cb3a <puts>
   12fc6:	000297b7          	lui	x15,0x29
   12fca:	20078513          	addi	x10,x15,512 # 29200 <__clzdi2+0x123e>
   12fce:	36d090ef          	jal	x1,1cb3a <puts>
   12fd2:	000297b7          	lui	x15,0x29
   12fd6:	24078513          	addi	x10,x15,576 # 29240 <__clzdi2+0x127e>
   12fda:	361090ef          	jal	x1,1cb3a <puts>
   12fde:	557d                	c.li	x10,-1
   12fe0:	363080ef          	jal	x1,1bb42 <exit>
   12fe4:	eb040613          	addi	x12,x8,-336
   12fe8:	eb840593          	addi	x11,x8,-328
   12fec:	ec040513          	addi	x10,x8,-320
   12ff0:	e8043883          	ld	x17,-384(x8)
   12ff4:	e6843803          	ld	x16,-408(x8)
   12ff8:	e7043783          	ld	x15,-400(x8)
   12ffc:	e7843703          	ld	x14,-392(x8)
   13000:	6814                	c.ld	x13,16(x8)
   13002:	dd6fd0ef          	jal	x1,105d8 <_Z15padding2d_shapePmS_S_mmmmm>
   13006:	ec043783          	ld	x15,-320(x8)
   1300a:	873e                	c.mv	x14,x15
   1300c:	177d                	c.addi	x14,-1
   1300e:	f6e43423          	sd	x14,-152(x8)
   13012:	8c3e                	c.mv	x24,x15
   13014:	4c81                	c.li	x25,0
   13016:	03cc5713          	srli	x14,x24,0x3c
   1301a:	004c9a93          	slli	x21,x25,0x4
   1301e:	01576ab3          	or	x21,x14,x21
   13022:	004c1a13          	slli	x20,x24,0x4
   13026:	8b3e                	c.mv	x22,x15
   13028:	4b81                	c.li	x23,0
   1302a:	03cb5713          	srli	x14,x22,0x3c
   1302e:	004b9993          	slli	x19,x23,0x4
   13032:	013769b3          	or	x19,x14,x19
   13036:	004b1913          	slli	x18,x22,0x4
   1303a:	0786                	c.slli	x15,0x1
   1303c:	07bd                	c.addi	x15,15
   1303e:	8391                	c.srli	x15,0x4
   13040:	0792                	c.slli	x15,0x4
   13042:	40f10133          	sub	x2,x2,x15
   13046:	878a                	c.mv	x15,x2
   13048:	0785                	c.addi	x15,1
   1304a:	8385                	c.srli	x15,0x1
   1304c:	0786                	c.slli	x15,0x1
   1304e:	f6f43023          	sd	x15,-160(x8)
   13052:	e8043883          	ld	x17,-384(x8)
   13056:	e6843803          	ld	x16,-408(x8)
   1305a:	e7043783          	ld	x15,-400(x8)
   1305e:	e7843703          	ld	x14,-392(x8)
   13062:	4681                	c.li	x13,0
   13064:	6810                	c.ld	x12,16(x8)
   13066:	e8843583          	ld	x11,-376(x8)
   1306a:	f6043503          	ld	x10,-160(x8)
   1306e:	869fd0ef          	jal	x1,108d6 <_Z9padding2dPsPKsmsmmmm>
   13072:	681c                	c.ld	x15,16(x8)
   13074:	00179713          	slli	x14,x15,0x1
   13078:	e7843783          	ld	x15,-392(x8)
   1307c:	973e                	c.add	x14,x15
   1307e:	601c                	c.ld	x15,0(x8)
   13080:	8f1d                	c.sub	x14,x15
   13082:	641c                	c.ld	x15,8(x8)
   13084:	02f757b3          	divu	x15,x14,x15
   13088:	0785                	c.addi	x15,1
   1308a:	f4f43c23          	sd	x15,-168(x8)
   1308e:	681c                	c.ld	x15,16(x8)
   13090:	00179713          	slli	x14,x15,0x1
   13094:	e7043783          	ld	x15,-400(x8)
   13098:	973e                	c.add	x14,x15
   1309a:	601c                	c.ld	x15,0(x8)
   1309c:	8f1d                	c.sub	x14,x15
   1309e:	641c                	c.ld	x15,8(x8)
   130a0:	02f757b3          	divu	x15,x14,x15
   130a4:	0785                	c.addi	x15,1
   130a6:	f4f43823          	sd	x15,-176(x8)
   130aa:	601c                	c.ld	x15,0(x8)
   130ac:	02f787b3          	mul	x15,x15,x15
   130b0:	f4f43423          	sd	x15,-184(x8)
   130b4:	f4843703          	ld	x14,-184(x8)
   130b8:	e6843783          	ld	x15,-408(x8)
   130bc:	02f707b3          	mul	x15,x14,x15
   130c0:	f4f43023          	sd	x15,-192(x8)
   130c4:	e7043703          	ld	x14,-400(x8)
   130c8:	e7843783          	ld	x15,-392(x8)
   130cc:	02f707b3          	mul	x15,x14,x15
   130d0:	f2f43c23          	sd	x15,-200(x8)
   130d4:	f3843703          	ld	x14,-200(x8)
   130d8:	e6843783          	ld	x15,-408(x8)
   130dc:	02f707b3          	mul	x15,x14,x15
   130e0:	f2f43823          	sd	x15,-208(x8)
   130e4:	f5043703          	ld	x14,-176(x8)
   130e8:	f5843783          	ld	x15,-168(x8)
   130ec:	02f707b3          	mul	x15,x14,x15
   130f0:	f2f43423          	sd	x15,-216(x8)
   130f4:	f2843703          	ld	x14,-216(x8)
   130f8:	e6043783          	ld	x15,-416(x8)
   130fc:	02f707b3          	mul	x15,x14,x15
   13100:	f2f43023          	sd	x15,-224(x8)
   13104:	f6043c23          	sd	x0,-136(x8)
   13108:	aaf9                	c.j	132e6 <_ZL9nn_conv2dPsPKsS1_mmmmmmmm+0x394>
   1310a:	f7843703          	ld	x14,-136(x8)
   1310e:	f3043783          	ld	x15,-208(x8)
   13112:	02f707b3          	mul	x15,x14,x15
   13116:	f0f43c23          	sd	x15,-232(x8)
   1311a:	f7843703          	ld	x14,-136(x8)
   1311e:	f2043783          	ld	x15,-224(x8)
   13122:	02f707b3          	mul	x15,x14,x15
   13126:	f0f43823          	sd	x15,-240(x8)
   1312a:	f8043023          	sd	x0,-128(x8)
   1312e:	a24d                	c.j	132d0 <_ZL9nn_conv2dPsPKsS1_mmmmmmmm+0x37e>
   13130:	f8043703          	ld	x14,-128(x8)
   13134:	f4043783          	ld	x15,-192(x8)
   13138:	02f707b3          	mul	x15,x14,x15
   1313c:	f0f43423          	sd	x15,-248(x8)
   13140:	f8043703          	ld	x14,-128(x8)
   13144:	f2843783          	ld	x15,-216(x8)
   13148:	02f707b3          	mul	x15,x14,x15
   1314c:	f0f43023          	sd	x15,-256(x8)
   13150:	f8043423          	sd	x0,-120(x8)
   13154:	a29d                	c.j	132ba <_ZL9nn_conv2dPsPKsS1_mmmmmmmm+0x368>
   13156:	f8843703          	ld	x14,-120(x8)
   1315a:	f4843783          	ld	x15,-184(x8)
   1315e:	02f707b3          	mul	x15,x14,x15
   13162:	eef43c23          	sd	x15,-264(x8)
   13166:	f8843703          	ld	x14,-120(x8)
   1316a:	f3843783          	ld	x15,-200(x8)
   1316e:	02f707b3          	mul	x15,x14,x15
   13172:	eef43823          	sd	x15,-272(x8)
   13176:	f8043823          	sd	x0,-112(x8)
   1317a:	a22d                	c.j	132a4 <_ZL9nn_conv2dPsPKsS1_mmmmmmmm+0x352>
   1317c:	f8043c23          	sd	x0,-104(x8)
   13180:	a239                	c.j	1328e <_ZL9nn_conv2dPsPKsS1_mmmmmmmm+0x33c>
   13182:	f9043703          	ld	x14,-112(x8)
   13186:	e7043783          	ld	x15,-400(x8)
   1318a:	02f70733          	mul	x14,x14,x15
   1318e:	f9843783          	ld	x15,-104(x8)
   13192:	97ba                	c.add	x15,x14
   13194:	6418                	c.ld	x14,8(x8)
   13196:	02f707b3          	mul	x15,x14,x15
   1319a:	eef43423          	sd	x15,-280(x8)
   1319e:	f9043703          	ld	x14,-112(x8)
   131a2:	f5043783          	ld	x15,-176(x8)
   131a6:	02f707b3          	mul	x15,x14,x15
   131aa:	f9843703          	ld	x14,-104(x8)
   131ae:	97ba                	c.add	x15,x14
   131b0:	eef43023          	sd	x15,-288(x8)
   131b4:	f1043703          	ld	x14,-240(x8)
   131b8:	f0043783          	ld	x15,-256(x8)
   131bc:	97ba                	c.add	x15,x14
   131be:	ee043703          	ld	x14,-288(x8)
   131c2:	97ba                	c.add	x15,x14
   131c4:	ecf43c23          	sd	x15,-296(x8)
   131c8:	f6043823          	sd	x0,-144(x8)
   131cc:	a07d                	c.j	1327a <_ZL9nn_conv2dPsPKsS1_mmmmmmmm+0x328>
   131ce:	f0843703          	ld	x14,-248(x8)
   131d2:	ef843783          	ld	x15,-264(x8)
   131d6:	973e                	c.add	x14,x15
   131d8:	6014                	c.ld	x13,0(x8)
   131da:	f7043783          	ld	x15,-144(x8)
   131de:	02f687b3          	mul	x15,x13,x15
   131e2:	97ba                	c.add	x15,x14
   131e4:	ecf43823          	sd	x15,-304(x8)
   131e8:	f1843703          	ld	x14,-232(x8)
   131ec:	ef043783          	ld	x15,-272(x8)
   131f0:	973e                	c.add	x14,x15
   131f2:	ee843783          	ld	x15,-280(x8)
   131f6:	973e                	c.add	x14,x15
   131f8:	e7043683          	ld	x13,-400(x8)
   131fc:	f7043783          	ld	x15,-144(x8)
   13200:	02f687b3          	mul	x15,x13,x15
   13204:	97ba                	c.add	x15,x14
   13206:	ecf43423          	sd	x15,-312(x8)
   1320a:	ed043783          	ld	x15,-304(x8)
   1320e:	0786                	c.slli	x15,0x1
   13210:	e9043703          	ld	x14,-368(x8)
   13214:	00f705b3          	add	x11,x14,x15
   13218:	ec843783          	ld	x15,-312(x8)
   1321c:	0786                	c.slli	x15,0x1
   1321e:	f6043703          	ld	x14,-160(x8)
   13222:	973e                	c.add	x14,x15
   13224:	eae40793          	addi	x15,x8,-338
   13228:	6014                	c.ld	x13,0(x8)
   1322a:	863a                	c.mv	x12,x14
   1322c:	853e                	c.mv	x10,x15
   1322e:	8a9fd0ef          	jal	x1,10ad6 <_ZL13tiled_dotprodPsPKsS1_m>
   13232:	ed843783          	ld	x15,-296(x8)
   13236:	0786                	c.slli	x15,0x1
   13238:	e9843703          	ld	x14,-360(x8)
   1323c:	97ba                	c.add	x15,x14
   1323e:	00079783          	lh	x15,0(x15)
   13242:	03079713          	slli	x14,x15,0x30
   13246:	9341                	c.srli	x14,0x30
   13248:	eae41783          	lh	x15,-338(x8)
   1324c:	17c2                	c.slli	x15,0x30
   1324e:	93c1                	c.srli	x15,0x30
   13250:	9fb9                	c.addw	x15,x14
   13252:	03079693          	slli	x13,x15,0x30
   13256:	92c1                	c.srli	x13,0x30
   13258:	ed843783          	ld	x15,-296(x8)
   1325c:	0786                	c.slli	x15,0x1
   1325e:	e9843703          	ld	x14,-360(x8)
   13262:	97ba                	c.add	x15,x14
   13264:	0106971b          	slliw	x14,x13,0x10
   13268:	4107571b          	sraiw	x14,x14,0x10
   1326c:	00e79023          	sh	x14,0(x15)
   13270:	f7043783          	ld	x15,-144(x8)
   13274:	0785                	c.addi	x15,1
   13276:	f6f43823          	sd	x15,-144(x8)
   1327a:	f7043703          	ld	x14,-144(x8)
   1327e:	601c                	c.ld	x15,0(x8)
   13280:	f4f767e3          	bltu	x14,x15,131ce <_ZL9nn_conv2dPsPKsS1_mmmmmmmm+0x27c>
   13284:	f9843783          	ld	x15,-104(x8)
   13288:	0785                	c.addi	x15,1
   1328a:	f8f43c23          	sd	x15,-104(x8)
   1328e:	f9843703          	ld	x14,-104(x8)
   13292:	f5043783          	ld	x15,-176(x8)
   13296:	eef766e3          	bltu	x14,x15,13182 <_ZL9nn_conv2dPsPKsS1_mmmmmmmm+0x230>
   1329a:	f9043783          	ld	x15,-112(x8)
   1329e:	0785                	c.addi	x15,1
   132a0:	f8f43823          	sd	x15,-112(x8)
   132a4:	f9043703          	ld	x14,-112(x8)
   132a8:	f5843783          	ld	x15,-168(x8)
   132ac:	ecf768e3          	bltu	x14,x15,1317c <_ZL9nn_conv2dPsPKsS1_mmmmmmmm+0x22a>
   132b0:	f8843783          	ld	x15,-120(x8)
   132b4:	0785                	c.addi	x15,1
   132b6:	f8f43423          	sd	x15,-120(x8)
   132ba:	f8843703          	ld	x14,-120(x8)
   132be:	e6843783          	ld	x15,-408(x8)
   132c2:	e8f76ae3          	bltu	x14,x15,13156 <_ZL9nn_conv2dPsPKsS1_mmmmmmmm+0x204>
   132c6:	f8043783          	ld	x15,-128(x8)
   132ca:	0785                	c.addi	x15,1
   132cc:	f8f43023          	sd	x15,-128(x8)
   132d0:	f8043703          	ld	x14,-128(x8)
   132d4:	e6043783          	ld	x15,-416(x8)
   132d8:	e4f76ce3          	bltu	x14,x15,13130 <_ZL9nn_conv2dPsPKsS1_mmmmmmmm+0x1de>
   132dc:	f7843783          	ld	x15,-136(x8)
   132e0:	0785                	c.addi	x15,1
   132e2:	f6f43c23          	sd	x15,-136(x8)
   132e6:	f7843703          	ld	x14,-136(x8)
   132ea:	e8043783          	ld	x15,-384(x8)
   132ee:	e0f76ee3          	bltu	x14,x15,1310a <_ZL9nn_conv2dPsPKsS1_mmmmmmmm+0x1b8>
   132f2:	8126                	c.mv	x2,x9
   132f4:	0001                	c.addi	x0,0
   132f6:	e6040113          	addi	x2,x8,-416
   132fa:	60fa                	c.ldsp	x1,408(x2)
   132fc:	645a                	c.ldsp	x8,400(x2)
   132fe:	64ba                	c.ldsp	x9,392(x2)
   13300:	691a                	c.ldsp	x18,384(x2)
   13302:	79f6                	c.ldsp	x19,376(x2)
   13304:	7a56                	c.ldsp	x20,368(x2)
   13306:	7ab6                	c.ldsp	x21,360(x2)
   13308:	7b16                	c.ldsp	x22,352(x2)
   1330a:	6bf6                	c.ldsp	x23,344(x2)
   1330c:	6c56                	c.ldsp	x24,336(x2)
   1330e:	6cb6                	c.ldsp	x25,328(x2)
   13310:	611d                	c.addi16sp	x2,416
   13312:	8082                	c.jr	x1

0000000000013314 <_ZL14nn_batchnorm2dPsPKsmmmmR14BatchNormParamb>:
   13314:	7175                	c.addi16sp	x2,-144
   13316:	e506                	c.sdsp	x1,136(x2)
   13318:	e122                	c.sdsp	x8,128(x2)
   1331a:	0900                	c.addi4spn	x8,x2,144
   1331c:	faa43423          	sd	x10,-88(x8)
   13320:	fab43023          	sd	x11,-96(x8)
   13324:	f8c43c23          	sd	x12,-104(x8)
   13328:	f8d43823          	sd	x13,-112(x8)
   1332c:	f8e43423          	sd	x14,-120(x8)
   13330:	f8f43023          	sd	x15,-128(x8)
   13334:	f7043c23          	sd	x16,-136(x8)
   13338:	87c6                	c.mv	x15,x17
   1333a:	f6f40ba3          	sb	x15,-137(x8)
   1333e:	fa843783          	ld	x15,-88(x8)
   13342:	eb85                	c.bnez	x15,13372 <_ZL14nn_batchnorm2dPsPKsmmmmR14BatchNormParamb+0x5e>
   13344:	000297b7          	lui	x15,0x29
   13348:	28078513          	addi	x10,x15,640 # 29280 <__clzdi2+0x12be>
   1334c:	7ee090ef          	jal	x1,1cb3a <puts>
   13350:	f8043703          	ld	x14,-128(x8)
   13354:	f8843683          	ld	x13,-120(x8)
   13358:	f9043603          	ld	x12,-112(x8)
   1335c:	f9843583          	ld	x11,-104(x8)
   13360:	000297b7          	lui	x15,0x29
   13364:	2d078513          	addi	x10,x15,720 # 292d0 <__clzdi2+0x130e>
   13368:	65a090ef          	jal	x1,1c9c2 <printf>
   1336c:	557d                	c.li	x10,-1
   1336e:	7d4080ef          	jal	x1,1bb42 <exit>
   13372:	f8843703          	ld	x14,-120(x8)
   13376:	f8043783          	ld	x15,-128(x8)
   1337a:	02f707b3          	mul	x15,x14,x15
   1337e:	fcf43c23          	sd	x15,-40(x8)
   13382:	f9043703          	ld	x14,-112(x8)
   13386:	fd843783          	ld	x15,-40(x8)
   1338a:	02f707b3          	mul	x15,x14,x15
   1338e:	fcf43823          	sd	x15,-48(x8)
   13392:	f7744783          	lbu	x15,-137(x8)
   13396:	2781                	c.addiw	x15,0
   13398:	16079d63          	bne	x15,x0,13512 <_ZL14nn_batchnorm2dPsPKsmmmmR14BatchNormParamb+0x1fe>
   1339c:	fe043423          	sd	x0,-24(x8)
   133a0:	a295                	c.j	13504 <_ZL14nn_batchnorm2dPsPKsmmmmR14BatchNormParamb+0x1f0>
   133a2:	fe843703          	ld	x14,-24(x8)
   133a6:	fd043783          	ld	x15,-48(x8)
   133aa:	02f707b3          	mul	x15,x14,x15
   133ae:	fcf43423          	sd	x15,-56(x8)
   133b2:	fe043023          	sd	x0,-32(x8)
   133b6:	aa25                	c.j	134ee <_ZL14nn_batchnorm2dPsPKsmmmmR14BatchNormParamb+0x1da>
   133b8:	fe043703          	ld	x14,-32(x8)
   133bc:	fd843783          	ld	x15,-40(x8)
   133c0:	02f707b3          	mul	x15,x14,x15
   133c4:	fc843703          	ld	x14,-56(x8)
   133c8:	97ba                	c.add	x15,x14
   133ca:	fcf43023          	sd	x15,-64(x8)
   133ce:	f7843783          	ld	x15,-136(x8)
   133d2:	6f98                	c.ld	x14,24(x15)
   133d4:	fe043783          	ld	x15,-32(x8)
   133d8:	0786                	c.slli	x15,0x1
   133da:	97ba                	c.add	x15,x14
   133dc:	00079783          	lh	x15,0(x15)
   133e0:	d007f753          	fcvt.s.w	f14,x15
   133e4:	f7843783          	ld	x15,-136(x8)
   133e8:	0207a787          	flw	f15,32(x15)
   133ec:	00f777d3          	fadd.s	f15,f14,f15
   133f0:	20f78553          	fsgnj.s	f10,f15,f15
   133f4:	011000ef          	jal	x1,13c04 <_ZSt4sqrtf>
   133f8:	20a507d3          	fsgnj.s	f15,f10,f10
   133fc:	c00797d3          	fcvt.w.s	x15,f15,rtz
   13400:	faf41f23          	sh	x15,-66(x8)
   13404:	fc043783          	ld	x15,-64(x8)
   13408:	0786                	c.slli	x15,0x1
   1340a:	fa843703          	ld	x14,-88(x8)
   1340e:	00f70533          	add	x10,x14,x15
   13412:	fc043783          	ld	x15,-64(x8)
   13416:	0786                	c.slli	x15,0x1
   13418:	fa043703          	ld	x14,-96(x8)
   1341c:	00f705b3          	add	x11,x14,x15
   13420:	f7843783          	ld	x15,-136(x8)
   13424:	6b98                	c.ld	x14,16(x15)
   13426:	fe043783          	ld	x15,-32(x8)
   1342a:	0786                	c.slli	x15,0x1
   1342c:	97ba                	c.add	x15,x14
   1342e:	00079783          	lh	x15,0(x15)
   13432:	f8043703          	ld	x14,-128(x8)
   13436:	f8843683          	ld	x13,-120(x8)
   1343a:	863e                	c.mv	x12,x15
   1343c:	932fe0ef          	jal	x1,1156e <_ZL23tiled_matrix_sub_scalarPsPKssmm>
   13440:	fc043783          	ld	x15,-64(x8)
   13444:	0786                	c.slli	x15,0x1
   13446:	fa843703          	ld	x14,-88(x8)
   1344a:	00f70533          	add	x10,x14,x15
   1344e:	fc043783          	ld	x15,-64(x8)
   13452:	0786                	c.slli	x15,0x1
   13454:	fa843703          	ld	x14,-88(x8)
   13458:	97ba                	c.add	x15,x14
   1345a:	fbe41603          	lh	x12,-66(x8)
   1345e:	f8043703          	ld	x14,-128(x8)
   13462:	f8843683          	ld	x13,-120(x8)
   13466:	85be                	c.mv	x11,x15
   13468:	d66fe0ef          	jal	x1,119ce <_ZL23tiled_matrix_div_scalarPsPKssmm>
   1346c:	fc043783          	ld	x15,-64(x8)
   13470:	0786                	c.slli	x15,0x1
   13472:	fa843703          	ld	x14,-88(x8)
   13476:	00f70533          	add	x10,x14,x15
   1347a:	fc043783          	ld	x15,-64(x8)
   1347e:	0786                	c.slli	x15,0x1
   13480:	fa843703          	ld	x14,-88(x8)
   13484:	00f705b3          	add	x11,x14,x15
   13488:	f7843783          	ld	x15,-136(x8)
   1348c:	6398                	c.ld	x14,0(x15)
   1348e:	fe043783          	ld	x15,-32(x8)
   13492:	0786                	c.slli	x15,0x1
   13494:	97ba                	c.add	x15,x14
   13496:	00079783          	lh	x15,0(x15)
   1349a:	f8043703          	ld	x14,-128(x8)
   1349e:	f8843683          	ld	x13,-120(x8)
   134a2:	863e                	c.mv	x12,x15
   134a4:	afafe0ef          	jal	x1,1179e <_ZL23tiled_matrix_mul_scalarPsPKssmm>
   134a8:	fc043783          	ld	x15,-64(x8)
   134ac:	0786                	c.slli	x15,0x1
   134ae:	fa843703          	ld	x14,-88(x8)
   134b2:	00f70533          	add	x10,x14,x15
   134b6:	fc043783          	ld	x15,-64(x8)
   134ba:	0786                	c.slli	x15,0x1
   134bc:	fa843703          	ld	x14,-88(x8)
   134c0:	00f705b3          	add	x11,x14,x15
   134c4:	f7843783          	ld	x15,-136(x8)
   134c8:	6798                	c.ld	x14,8(x15)
   134ca:	fe043783          	ld	x15,-32(x8)
   134ce:	0786                	c.slli	x15,0x1
   134d0:	97ba                	c.add	x15,x14
   134d2:	00079783          	lh	x15,0(x15)
   134d6:	f8043703          	ld	x14,-128(x8)
   134da:	f8843683          	ld	x13,-120(x8)
   134de:	863e                	c.mv	x12,x15
   134e0:	e5ffd0ef          	jal	x1,1133e <_ZL23tiled_matrix_add_scalarPsPKssmm>
   134e4:	fe043783          	ld	x15,-32(x8)
   134e8:	0785                	c.addi	x15,1
   134ea:	fef43023          	sd	x15,-32(x8)
   134ee:	fe043703          	ld	x14,-32(x8)
   134f2:	f9043783          	ld	x15,-112(x8)
   134f6:	ecf761e3          	bltu	x14,x15,133b8 <_ZL14nn_batchnorm2dPsPKsmmmmR14BatchNormParamb+0xa4>
   134fa:	fe843783          	ld	x15,-24(x8)
   134fe:	0785                	c.addi	x15,1
   13500:	fef43423          	sd	x15,-24(x8)
   13504:	fe843703          	ld	x14,-24(x8)
   13508:	f9843783          	ld	x15,-104(x8)
   1350c:	e8f76be3          	bltu	x14,x15,133a2 <_ZL14nn_batchnorm2dPsPKsmmmmR14BatchNormParamb+0x8e>
   13510:	a00d                	c.j	13532 <_ZL14nn_batchnorm2dPsPKsmmmmR14BatchNormParamb+0x21e>
   13512:	f7744783          	lbu	x15,-137(x8)
   13516:	2781                	c.addiw	x15,0
   13518:	873e                	c.mv	x14,x15
   1351a:	4785                	c.li	x15,1
   1351c:	00f71b63          	bne	x14,x15,13532 <_ZL14nn_batchnorm2dPsPKsmmmmR14BatchNormParamb+0x21e>
   13520:	000297b7          	lui	x15,0x29
   13524:	31878513          	addi	x10,x15,792 # 29318 <__clzdi2+0x1356>
   13528:	49a090ef          	jal	x1,1c9c2 <printf>
   1352c:	557d                	c.li	x10,-1
   1352e:	614080ef          	jal	x1,1bb42 <exit>
   13532:	0001                	c.addi	x0,0
   13534:	60aa                	c.ldsp	x1,136(x2)
   13536:	640a                	c.ldsp	x8,128(x2)
   13538:	6149                	c.addi16sp	x2,144
   1353a:	8082                	c.jr	x1

000000000001353c <_ZL14nn_layernorm2dPsPKsmmmmR14LayerNormParamb>:
   1353c:	7175                	c.addi16sp	x2,-144
   1353e:	e506                	c.sdsp	x1,136(x2)
   13540:	e122                	c.sdsp	x8,128(x2)
   13542:	0900                	c.addi4spn	x8,x2,144
   13544:	faa43423          	sd	x10,-88(x8)
   13548:	fab43023          	sd	x11,-96(x8)
   1354c:	f8c43c23          	sd	x12,-104(x8)
   13550:	f8d43823          	sd	x13,-112(x8)
   13554:	f8e43423          	sd	x14,-120(x8)
   13558:	f8f43023          	sd	x15,-128(x8)
   1355c:	f7043c23          	sd	x16,-136(x8)
   13560:	87c6                	c.mv	x15,x17
   13562:	f6f40ba3          	sb	x15,-137(x8)
   13566:	fa843783          	ld	x15,-88(x8)
   1356a:	eb85                	c.bnez	x15,1359a <_ZL14nn_layernorm2dPsPKsmmmmR14LayerNormParamb+0x5e>
   1356c:	000297b7          	lui	x15,0x29
   13570:	34878513          	addi	x10,x15,840 # 29348 <__clzdi2+0x1386>
   13574:	5c6090ef          	jal	x1,1cb3a <puts>
   13578:	f8043703          	ld	x14,-128(x8)
   1357c:	f8843683          	ld	x13,-120(x8)
   13580:	f9043603          	ld	x12,-112(x8)
   13584:	f9843583          	ld	x11,-104(x8)
   13588:	000297b7          	lui	x15,0x29
   1358c:	2d078513          	addi	x10,x15,720 # 292d0 <__clzdi2+0x130e>
   13590:	432090ef          	jal	x1,1c9c2 <printf>
   13594:	557d                	c.li	x10,-1
   13596:	5ac080ef          	jal	x1,1bb42 <exit>
   1359a:	f8843703          	ld	x14,-120(x8)
   1359e:	f8043783          	ld	x15,-128(x8)
   135a2:	02f707b3          	mul	x15,x14,x15
   135a6:	fcf43c23          	sd	x15,-40(x8)
   135aa:	f9043703          	ld	x14,-112(x8)
   135ae:	fd843783          	ld	x15,-40(x8)
   135b2:	02f707b3          	mul	x15,x14,x15
   135b6:	fcf43823          	sd	x15,-48(x8)
   135ba:	f7744783          	lbu	x15,-137(x8)
   135be:	2781                	c.addiw	x15,0
   135c0:	18079e63          	bne	x15,x0,1375c <_ZL14nn_layernorm2dPsPKsmmmmR14LayerNormParamb+0x220>
   135c4:	fe043423          	sd	x0,-24(x8)
   135c8:	a259                	c.j	1374e <_ZL14nn_layernorm2dPsPKsmmmmR14LayerNormParamb+0x212>
   135ca:	fe843703          	ld	x14,-24(x8)
   135ce:	fd043783          	ld	x15,-48(x8)
   135d2:	02f707b3          	mul	x15,x14,x15
   135d6:	fcf43423          	sd	x15,-56(x8)
   135da:	fc843783          	ld	x15,-56(x8)
   135de:	0786                	c.slli	x15,0x1
   135e0:	fa043703          	ld	x14,-96(x8)
   135e4:	00f705b3          	add	x11,x14,x15
   135e8:	fb640793          	addi	x15,x8,-74
   135ec:	f9043703          	ld	x14,-112(x8)
   135f0:	f8043683          	ld	x13,-128(x8)
   135f4:	f8843603          	ld	x12,-120(x8)
   135f8:	853e                	c.mv	x10,x15
   135fa:	fc2ff0ef          	jal	x1,12dbc <_ZL11matrix_meanPsPKsmmm>
   135fe:	fc843783          	ld	x15,-56(x8)
   13602:	0786                	c.slli	x15,0x1
   13604:	fa043703          	ld	x14,-96(x8)
   13608:	973e                	c.add	x14,x15
   1360a:	fb440793          	addi	x15,x8,-76
   1360e:	fd043603          	ld	x12,-48(x8)
   13612:	85ba                	c.mv	x11,x14
   13614:	853e                	c.mv	x10,x15
   13616:	bfaff0ef          	jal	x1,12a10 <_ZL10vector_varPsPKsm>
   1361a:	fb441783          	lh	x15,-76(x8)
   1361e:	d007f753          	fcvt.s.w	f14,x15
   13622:	f7843783          	ld	x15,-136(x8)
   13626:	0107a787          	flw	f15,16(x15)
   1362a:	00f777d3          	fadd.s	f15,f14,f15
   1362e:	20f78553          	fsgnj.s	f10,f15,f15
   13632:	5d2000ef          	jal	x1,13c04 <_ZSt4sqrtf>
   13636:	20a507d3          	fsgnj.s	f15,f10,f10
   1363a:	c00797d3          	fcvt.w.s	x15,f15,rtz
   1363e:	fcf41323          	sh	x15,-58(x8)
   13642:	fe043023          	sd	x0,-32(x8)
   13646:	a8cd                	c.j	13738 <_ZL14nn_layernorm2dPsPKsmmmmR14LayerNormParamb+0x1fc>
   13648:	fe043703          	ld	x14,-32(x8)
   1364c:	fd843783          	ld	x15,-40(x8)
   13650:	02f707b3          	mul	x15,x14,x15
   13654:	fc843703          	ld	x14,-56(x8)
   13658:	97ba                	c.add	x15,x14
   1365a:	faf43c23          	sd	x15,-72(x8)
   1365e:	fb843783          	ld	x15,-72(x8)
   13662:	0786                	c.slli	x15,0x1
   13664:	fa843703          	ld	x14,-88(x8)
   13668:	00f70533          	add	x10,x14,x15
   1366c:	fb843783          	ld	x15,-72(x8)
   13670:	0786                	c.slli	x15,0x1
   13672:	fa043703          	ld	x14,-96(x8)
   13676:	97ba                	c.add	x15,x14
   13678:	fb641603          	lh	x12,-74(x8)
   1367c:	f8043703          	ld	x14,-128(x8)
   13680:	f8843683          	ld	x13,-120(x8)
   13684:	85be                	c.mv	x11,x15
   13686:	ee9fd0ef          	jal	x1,1156e <_ZL23tiled_matrix_sub_scalarPsPKssmm>
   1368a:	fb843783          	ld	x15,-72(x8)
   1368e:	0786                	c.slli	x15,0x1
   13690:	fa843703          	ld	x14,-88(x8)
   13694:	00f70533          	add	x10,x14,x15
   13698:	fb843783          	ld	x15,-72(x8)
   1369c:	0786                	c.slli	x15,0x1
   1369e:	fa843703          	ld	x14,-88(x8)
   136a2:	97ba                	c.add	x15,x14
   136a4:	fc641603          	lh	x12,-58(x8)
   136a8:	f8043703          	ld	x14,-128(x8)
   136ac:	f8843683          	ld	x13,-120(x8)
   136b0:	85be                	c.mv	x11,x15
   136b2:	b1cfe0ef          	jal	x1,119ce <_ZL23tiled_matrix_div_scalarPsPKssmm>
   136b6:	fb843783          	ld	x15,-72(x8)
   136ba:	0786                	c.slli	x15,0x1
   136bc:	fa843703          	ld	x14,-88(x8)
   136c0:	00f70533          	add	x10,x14,x15
   136c4:	fb843783          	ld	x15,-72(x8)
   136c8:	0786                	c.slli	x15,0x1
   136ca:	fa843703          	ld	x14,-88(x8)
   136ce:	00f705b3          	add	x11,x14,x15
   136d2:	f7843783          	ld	x15,-136(x8)
   136d6:	6398                	c.ld	x14,0(x15)
   136d8:	fe843783          	ld	x15,-24(x8)
   136dc:	0786                	c.slli	x15,0x1
   136de:	97ba                	c.add	x15,x14
   136e0:	00079783          	lh	x15,0(x15)
   136e4:	f8043703          	ld	x14,-128(x8)
   136e8:	f8843683          	ld	x13,-120(x8)
   136ec:	863e                	c.mv	x12,x15
   136ee:	8b0fe0ef          	jal	x1,1179e <_ZL23tiled_matrix_mul_scalarPsPKssmm>
   136f2:	fb843783          	ld	x15,-72(x8)
   136f6:	0786                	c.slli	x15,0x1
   136f8:	fa843703          	ld	x14,-88(x8)
   136fc:	00f70533          	add	x10,x14,x15
   13700:	fb843783          	ld	x15,-72(x8)
   13704:	0786                	c.slli	x15,0x1
   13706:	fa843703          	ld	x14,-88(x8)
   1370a:	00f705b3          	add	x11,x14,x15
   1370e:	f7843783          	ld	x15,-136(x8)
   13712:	6798                	c.ld	x14,8(x15)
   13714:	fe843783          	ld	x15,-24(x8)
   13718:	0786                	c.slli	x15,0x1
   1371a:	97ba                	c.add	x15,x14
   1371c:	00079783          	lh	x15,0(x15)
   13720:	f8043703          	ld	x14,-128(x8)
   13724:	f8843683          	ld	x13,-120(x8)
   13728:	863e                	c.mv	x12,x15
   1372a:	c15fd0ef          	jal	x1,1133e <_ZL23tiled_matrix_add_scalarPsPKssmm>
   1372e:	fe043783          	ld	x15,-32(x8)
   13732:	0785                	c.addi	x15,1
   13734:	fef43023          	sd	x15,-32(x8)
   13738:	fe043703          	ld	x14,-32(x8)
   1373c:	f9043783          	ld	x15,-112(x8)
   13740:	f0f764e3          	bltu	x14,x15,13648 <_ZL14nn_layernorm2dPsPKsmmmmR14LayerNormParamb+0x10c>
   13744:	fe843783          	ld	x15,-24(x8)
   13748:	0785                	c.addi	x15,1
   1374a:	fef43423          	sd	x15,-24(x8)
   1374e:	fe843703          	ld	x14,-24(x8)
   13752:	f9843783          	ld	x15,-104(x8)
   13756:	e6f76ae3          	bltu	x14,x15,135ca <_ZL14nn_layernorm2dPsPKsmmmmR14LayerNormParamb+0x8e>
   1375a:	a00d                	c.j	1377c <_ZL14nn_layernorm2dPsPKsmmmmR14LayerNormParamb+0x240>
   1375c:	f7744783          	lbu	x15,-137(x8)
   13760:	2781                	c.addiw	x15,0
   13762:	873e                	c.mv	x14,x15
   13764:	4785                	c.li	x15,1
   13766:	00f71b63          	bne	x14,x15,1377c <_ZL14nn_layernorm2dPsPKsmmmmR14LayerNormParamb+0x240>
   1376a:	000297b7          	lui	x15,0x29
   1376e:	39878513          	addi	x10,x15,920 # 29398 <__clzdi2+0x13d6>
   13772:	250090ef          	jal	x1,1c9c2 <printf>
   13776:	557d                	c.li	x10,-1
   13778:	3ca080ef          	jal	x1,1bb42 <exit>
   1377c:	0001                	c.addi	x0,0
   1377e:	60aa                	c.ldsp	x1,136(x2)
   13780:	640a                	c.ldsp	x8,128(x2)
   13782:	6149                	c.addi16sp	x2,144
   13784:	8082                	c.jr	x1

0000000000013786 <_ZL15nn_maxpooling2dPsPKsmmmmmmm>:
   13786:	7169                	c.addi16sp	x2,-304
   13788:	f606                	c.sdsp	x1,296(x2)
   1378a:	f222                	c.sdsp	x8,288(x2)
   1378c:	1a00                	c.addi4spn	x8,x2,304
   1378e:	f0a43c23          	sd	x10,-232(x8)
   13792:	f0b43823          	sd	x11,-240(x8)
   13796:	f0c43423          	sd	x12,-248(x8)
   1379a:	f0d43023          	sd	x13,-256(x8)
   1379e:	eee43c23          	sd	x14,-264(x8)
   137a2:	eef43823          	sd	x15,-272(x8)
   137a6:	ef043423          	sd	x16,-280(x8)
   137aa:	ef143023          	sd	x17,-288(x8)
   137ae:	f1843783          	ld	x15,-232(x8)
   137b2:	e795                	c.bnez	x15,137de <_ZL15nn_maxpooling2dPsPKsmmmmmmm+0x58>
   137b4:	000297b7          	lui	x15,0x29
   137b8:	3c878513          	addi	x10,x15,968 # 293c8 <__clzdi2+0x1406>
   137bc:	37e090ef          	jal	x1,1cb3a <puts>
   137c0:	000297b7          	lui	x15,0x29
   137c4:	20078513          	addi	x10,x15,512 # 29200 <__clzdi2+0x123e>
   137c8:	372090ef          	jal	x1,1cb3a <puts>
   137cc:	000297b7          	lui	x15,0x29
   137d0:	41878513          	addi	x10,x15,1048 # 29418 <__clzdi2+0x1456>
   137d4:	366090ef          	jal	x1,1cb3a <puts>
   137d8:	557d                	c.li	x10,-1
   137da:	368080ef          	jal	x1,1bb42 <exit>
   137de:	ee843783          	ld	x15,-280(x8)
   137e2:	e38d                	c.bnez	x15,13804 <_ZL15nn_maxpooling2dPsPKsmmmmmmm+0x7e>
   137e4:	000297b7          	lui	x15,0x29
   137e8:	45878693          	addi	x13,x15,1112 # 29458 <__clzdi2+0x1496>
   137ec:	000297b7          	lui	x15,0x29
   137f0:	46878613          	addi	x12,x15,1128 # 29468 <__clzdi2+0x14a6>
   137f4:	0cc00593          	addi	x11,x0,204
   137f8:	000297b7          	lui	x15,0x29
   137fc:	1a078513          	addi	x10,x15,416 # 291a0 <__clzdi2+0x11de>
   13800:	2ee080ef          	jal	x1,1baee <__assert_func>
   13804:	601c                	c.ld	x15,0(x8)
   13806:	e781                	c.bnez	x15,1380e <_ZL15nn_maxpooling2dPsPKsmmmmmmm+0x88>
   13808:	ee843783          	ld	x15,-280(x8)
   1380c:	e01c                	c.sd	x15,0(x8)
   1380e:	f4040613          	addi	x12,x8,-192
   13812:	f4840593          	addi	x11,x8,-184
   13816:	f5040513          	addi	x10,x8,-176
   1381a:	ef043883          	ld	x17,-272(x8)
   1381e:	ef843803          	ld	x16,-264(x8)
   13822:	f0043783          	ld	x15,-256(x8)
   13826:	f0843703          	ld	x14,-248(x8)
   1382a:	ee043683          	ld	x13,-288(x8)
   1382e:	dabfc0ef          	jal	x1,105d8 <_Z15padding2d_shapePmS_S_mmmmm>
   13832:	f5043783          	ld	x15,-176(x8)
   13836:	574d                	c.li	x14,-13
   13838:	8309                	c.srli	x14,0x2
   1383a:	0af76463          	bltu	x14,x15,138e2 <_ZL15nn_maxpooling2dPsPKsmmmmmmm+0x15c>
   1383e:	0786                	c.slli	x15,0x1
   13840:	853e                	c.mv	x10,x15
   13842:	512000ef          	jal	x1,13d54 <_Znam>
   13846:	87aa                	c.mv	x15,x10
   13848:	faf43823          	sd	x15,-80(x8)
   1384c:	ef043883          	ld	x17,-272(x8)
   13850:	ef843803          	ld	x16,-264(x8)
   13854:	f0043783          	ld	x15,-256(x8)
   13858:	f0843703          	ld	x14,-248(x8)
   1385c:	76e1                	c.lui	x13,0xffff8
   1385e:	ee043603          	ld	x12,-288(x8)
   13862:	f1043583          	ld	x11,-240(x8)
   13866:	fb043503          	ld	x10,-80(x8)
   1386a:	86cfd0ef          	jal	x1,108d6 <_Z9padding2dPsPKsmsmmmm>
   1386e:	f2840613          	addi	x12,x8,-216
   13872:	f3040593          	addi	x11,x8,-208
   13876:	f3840513          	addi	x10,x8,-200
   1387a:	601c                	c.ld	x15,0(x8)
   1387c:	e43e                	c.sdsp	x15,8(x2)
   1387e:	ee043783          	ld	x15,-288(x8)
   13882:	e03e                	c.sdsp	x15,0(x2)
   13884:	ee843883          	ld	x17,-280(x8)
   13888:	ef043803          	ld	x16,-272(x8)
   1388c:	ef843783          	ld	x15,-264(x8)
   13890:	f0043703          	ld	x14,-256(x8)
   13894:	f0843683          	ld	x13,-248(x8)
   13898:	918fd0ef          	jal	x1,109b0 <_Z15pooling2d_shapePmS_S_mmmmmmm>
   1389c:	f3043703          	ld	x14,-208(x8)
   138a0:	f2843783          	ld	x15,-216(x8)
   138a4:	02f707b3          	mul	x15,x14,x15
   138a8:	faf43423          	sd	x15,-88(x8)
   138ac:	ef843703          	ld	x14,-264(x8)
   138b0:	fa843783          	ld	x15,-88(x8)
   138b4:	02f707b3          	mul	x15,x14,x15
   138b8:	faf43023          	sd	x15,-96(x8)
   138bc:	f4843703          	ld	x14,-184(x8)
   138c0:	f4043783          	ld	x15,-192(x8)
   138c4:	02f707b3          	mul	x15,x14,x15
   138c8:	f8f43c23          	sd	x15,-104(x8)
   138cc:	ef843703          	ld	x14,-264(x8)
   138d0:	f9843783          	ld	x15,-104(x8)
   138d4:	02f707b3          	mul	x15,x14,x15
   138d8:	f8f43823          	sd	x15,-112(x8)
   138dc:	fe043423          	sd	x0,-24(x8)
   138e0:	a271                	c.j	13a6c <_ZL15nn_maxpooling2dPsPKsmmmmmmm+0x2e6>
   138e2:	81bfc0ef          	jal	x1,100fc <__cxa_throw_bad_array_new_length>
   138e6:	fe843703          	ld	x14,-24(x8)
   138ea:	fa043783          	ld	x15,-96(x8)
   138ee:	02f707b3          	mul	x15,x14,x15
   138f2:	f8f43423          	sd	x15,-120(x8)
   138f6:	fe843703          	ld	x14,-24(x8)
   138fa:	f9043783          	ld	x15,-112(x8)
   138fe:	02f707b3          	mul	x15,x14,x15
   13902:	f8f43023          	sd	x15,-128(x8)
   13906:	fe043023          	sd	x0,-32(x8)
   1390a:	a2b1                	c.j	13a56 <_ZL15nn_maxpooling2dPsPKsmmmmmmm+0x2d0>
   1390c:	fe043703          	ld	x14,-32(x8)
   13910:	fa843783          	ld	x15,-88(x8)
   13914:	02f707b3          	mul	x15,x14,x15
   13918:	f6f43c23          	sd	x15,-136(x8)
   1391c:	fe043703          	ld	x14,-32(x8)
   13920:	f9843783          	ld	x15,-104(x8)
   13924:	02f707b3          	mul	x15,x14,x15
   13928:	f6f43823          	sd	x15,-144(x8)
   1392c:	fc043c23          	sd	x0,-40(x8)
   13930:	aa01                	c.j	13a40 <_ZL15nn_maxpooling2dPsPKsmmmmmmm+0x2ba>
   13932:	fc043823          	sd	x0,-48(x8)
   13936:	a8d5                	c.j	13a2a <_ZL15nn_maxpooling2dPsPKsmmmmmmm+0x2a4>
   13938:	77e1                	c.lui	x15,0xffff8
   1393a:	fcf41723          	sh	x15,-50(x8)
   1393e:	f8843703          	ld	x14,-120(x8)
   13942:	f7843783          	ld	x15,-136(x8)
   13946:	973e                	c.add	x14,x15
   13948:	f2843683          	ld	x13,-216(x8)
   1394c:	fd843783          	ld	x15,-40(x8)
   13950:	02f687b3          	mul	x15,x13,x15
   13954:	97ba                	c.add	x15,x14
   13956:	fd043703          	ld	x14,-48(x8)
   1395a:	97ba                	c.add	x15,x14
   1395c:	f6f43423          	sd	x15,-152(x8)
   13960:	f8043703          	ld	x14,-128(x8)
   13964:	f7043783          	ld	x15,-144(x8)
   13968:	973e                	c.add	x14,x15
   1396a:	f4043683          	ld	x13,-192(x8)
   1396e:	fd843783          	ld	x15,-40(x8)
   13972:	02f686b3          	mul	x13,x13,x15
   13976:	fd043783          	ld	x15,-48(x8)
   1397a:	96be                	c.add	x13,x15
   1397c:	601c                	c.ld	x15,0(x8)
   1397e:	02f687b3          	mul	x15,x13,x15
   13982:	97ba                	c.add	x15,x14
   13984:	f6f43023          	sd	x15,-160(x8)
   13988:	fc043023          	sd	x0,-64(x8)
   1398c:	a895                	c.j	13a00 <_ZL15nn_maxpooling2dPsPKsmmmmmmm+0x27a>
   1398e:	fa043c23          	sd	x0,-72(x8)
   13992:	a8a1                	c.j	139ea <_ZL15nn_maxpooling2dPsPKsmmmmmmm+0x264>
   13994:	f4043703          	ld	x14,-192(x8)
   13998:	fc043783          	ld	x15,-64(x8)
   1399c:	02f70733          	mul	x14,x14,x15
   139a0:	f6043783          	ld	x15,-160(x8)
   139a4:	97ba                	c.add	x15,x14
   139a6:	fb843703          	ld	x14,-72(x8)
   139aa:	97ba                	c.add	x15,x14
   139ac:	f4f43c23          	sd	x15,-168(x8)
   139b0:	f5843783          	ld	x15,-168(x8)
   139b4:	0786                	c.slli	x15,0x1
   139b6:	fb043703          	ld	x14,-80(x8)
   139ba:	97ba                	c.add	x15,x14
   139bc:	00079783          	lh	x15,0(x15) # ffffffffffff8000 <__BSS_END__+0xfffffffffffc7890>
   139c0:	fce41703          	lh	x14,-50(x8)
   139c4:	2701                	c.addiw	x14,0
   139c6:	2781                	c.addiw	x15,0
   139c8:	00f75c63          	bge	x14,x15,139e0 <_ZL15nn_maxpooling2dPsPKsmmmmmmm+0x25a>
   139cc:	f5843783          	ld	x15,-168(x8)
   139d0:	0786                	c.slli	x15,0x1
   139d2:	fb043703          	ld	x14,-80(x8)
   139d6:	97ba                	c.add	x15,x14
   139d8:	0007d783          	lhu	x15,0(x15)
   139dc:	fcf41723          	sh	x15,-50(x8)
   139e0:	fb843783          	ld	x15,-72(x8)
   139e4:	0785                	c.addi	x15,1
   139e6:	faf43c23          	sd	x15,-72(x8)
   139ea:	fb843703          	ld	x14,-72(x8)
   139ee:	ee843783          	ld	x15,-280(x8)
   139f2:	faf761e3          	bltu	x14,x15,13994 <_ZL15nn_maxpooling2dPsPKsmmmmmmm+0x20e>
   139f6:	fc043783          	ld	x15,-64(x8)
   139fa:	0785                	c.addi	x15,1
   139fc:	fcf43023          	sd	x15,-64(x8)
   13a00:	fc043703          	ld	x14,-64(x8)
   13a04:	ee843783          	ld	x15,-280(x8)
   13a08:	f8f763e3          	bltu	x14,x15,1398e <_ZL15nn_maxpooling2dPsPKsmmmmmmm+0x208>
   13a0c:	f6843783          	ld	x15,-152(x8)
   13a10:	0786                	c.slli	x15,0x1
   13a12:	f1843703          	ld	x14,-232(x8)
   13a16:	97ba                	c.add	x15,x14
   13a18:	fce45703          	lhu	x14,-50(x8)
   13a1c:	00e79023          	sh	x14,0(x15)
   13a20:	fd043783          	ld	x15,-48(x8)
   13a24:	0785                	c.addi	x15,1
   13a26:	fcf43823          	sd	x15,-48(x8)
   13a2a:	f2843783          	ld	x15,-216(x8)
   13a2e:	fd043703          	ld	x14,-48(x8)
   13a32:	f0f763e3          	bltu	x14,x15,13938 <_ZL15nn_maxpooling2dPsPKsmmmmmmm+0x1b2>
   13a36:	fd843783          	ld	x15,-40(x8)
   13a3a:	0785                	c.addi	x15,1
   13a3c:	fcf43c23          	sd	x15,-40(x8)
   13a40:	f3043783          	ld	x15,-208(x8)
   13a44:	fd843703          	ld	x14,-40(x8)
   13a48:	eef765e3          	bltu	x14,x15,13932 <_ZL15nn_maxpooling2dPsPKsmmmmmmm+0x1ac>
   13a4c:	fe043783          	ld	x15,-32(x8)
   13a50:	0785                	c.addi	x15,1
   13a52:	fef43023          	sd	x15,-32(x8)
   13a56:	fe043703          	ld	x14,-32(x8)
   13a5a:	ef843783          	ld	x15,-264(x8)
   13a5e:	eaf767e3          	bltu	x14,x15,1390c <_ZL15nn_maxpooling2dPsPKsmmmmmmm+0x186>
   13a62:	fe843783          	ld	x15,-24(x8)
   13a66:	0785                	c.addi	x15,1
   13a68:	fef43423          	sd	x15,-24(x8)
   13a6c:	fe843703          	ld	x14,-24(x8)
   13a70:	ef043783          	ld	x15,-272(x8)
   13a74:	e6f769e3          	bltu	x14,x15,138e6 <_ZL15nn_maxpooling2dPsPKsmmmmmmm+0x160>
   13a78:	0001                	c.addi	x0,0
   13a7a:	0001                	c.addi	x0,0
   13a7c:	70b2                	c.ldsp	x1,296(x2)
   13a7e:	7412                	c.ldsp	x8,288(x2)
   13a80:	6155                	c.addi16sp	x2,304
   13a82:	8082                	c.jr	x1

0000000000013a84 <_ZL27nn_scaled_dotprod_attentionPsS_PKsS1_S1_>:
   13a84:	7139                	c.addi16sp	x2,-64
   13a86:	fc22                	c.sdsp	x8,56(x2)
   13a88:	0080                	c.addi4spn	x8,x2,64
   13a8a:	fea43423          	sd	x10,-24(x8)
   13a8e:	feb43023          	sd	x11,-32(x8)
   13a92:	fcc43c23          	sd	x12,-40(x8)
   13a96:	fcd43823          	sd	x13,-48(x8)
   13a9a:	fce43423          	sd	x14,-56(x8)
   13a9e:	0001                	c.addi	x0,0
   13aa0:	7462                	c.ldsp	x8,56(x2)
   13aa2:	6121                	c.addi16sp	x2,64
   13aa4:	8082                	c.jr	x1

0000000000013aa6 <main>:
   13aa6:	9e010113          	addi	x2,x2,-1568
   13aaa:	60113c23          	sd	x1,1560(x2)
   13aae:	60813823          	sd	x8,1552(x2)
   13ab2:	62010413          	addi	x8,x2,1568
   13ab6:	000297b7          	lui	x15,0x29
   13aba:	69078513          	addi	x10,x15,1680 # 29690 <_ZL11iris_test_Y+0x40>
   13abe:	07c090ef          	jal	x1,1cb3a <puts>
   13ac2:	000297b7          	lui	x15,0x29
   13ac6:	6c078513          	addi	x10,x15,1728 # 296c0 <_ZL11iris_test_Y+0x70>
   13aca:	070090ef          	jal	x1,1cb3a <puts>
   13ace:	000297b7          	lui	x15,0x29
   13ad2:	6e878513          	addi	x10,x15,1768 # 296e8 <_ZL11iris_test_Y+0x98>
   13ad6:	064090ef          	jal	x1,1cb3a <puts>
   13ada:	47f9                	c.li	x15,30
   13adc:	fef43423          	sd	x15,-24(x8)
   13ae0:	4791                	c.li	x15,4
   13ae2:	fef43023          	sd	x15,-32(x8)
   13ae6:	47a9                	c.li	x15,10
   13ae8:	fcf43c23          	sd	x15,-40(x8)
   13aec:	478d                	c.li	x15,3
   13aee:	fcf43823          	sd	x15,-48(x8)
   13af2:	d7840513          	addi	x10,x8,-648
   13af6:	47f9                	c.li	x15,30
   13af8:	4729                	c.li	x14,10
   13afa:	4691                	c.li	x13,4
   13afc:	00029637          	lui	x12,0x29
   13b00:	56060613          	addi	x12,x12,1376 # 29560 <_ZL11iris_test_X>
   13b04:	000295b7          	lui	x11,0x29
   13b08:	4d058593          	addi	x11,x11,1232 # 294d0 <_ZL14mlp_fc1_weight>
   13b0c:	b46ff0ef          	jal	x1,12e52 <_ZL9nn_linearPsPKsS1_mmm>
   13b10:	d7840713          	addi	x14,x8,-648
   13b14:	b2040793          	addi	x15,x8,-1248
   13b18:	46a9                	c.li	x13,10
   13b1a:	4679                	c.li	x12,30
   13b1c:	85ba                	c.mv	x11,x14
   13b1e:	853e                	c.mv	x10,x15
   13b20:	8c0fe0ef          	jal	x1,11be0 <_ZL17tiled_matrix_reluPsPKsmm>
   13b24:	b2040613          	addi	x12,x8,-1248
   13b28:	a6840513          	addi	x10,x8,-1432
   13b2c:	47f9                	c.li	x15,30
   13b2e:	470d                	c.li	x14,3
   13b30:	46a9                	c.li	x13,10
   13b32:	000295b7          	lui	x11,0x29
   13b36:	52058593          	addi	x11,x11,1312 # 29520 <_ZL14mlp_fc2_weight>
   13b3a:	b18ff0ef          	jal	x1,12e52 <_ZL9nn_linearPsPKsS1_mmm>
   13b3e:	a6840713          	addi	x14,x8,-1432
   13b42:	a2840793          	addi	x15,x8,-1496
   13b46:	468d                	c.li	x13,3
   13b48:	4679                	c.li	x12,30
   13b4a:	85ba                	c.mv	x11,x14
   13b4c:	853e                	c.mv	x10,x15
   13b4e:	a8ffe0ef          	jal	x1,125dc <_ZL20matrix_vector_argmaxPsPKsmm>
   13b52:	000297b7          	lui	x15,0x29
   13b56:	70078513          	addi	x10,x15,1792 # 29700 <_ZL11iris_test_Y+0xb0>
   13b5a:	669080ef          	jal	x1,1c9c2 <printf>
   13b5e:	a2840793          	addi	x15,x8,-1496
   13b62:	45f9                	c.li	x11,30
   13b64:	853e                	c.mv	x10,x15
   13b66:	ecefc0ef          	jal	x1,10234 <_Z9print_vecPKsm>
   13b6a:	000297b7          	lui	x15,0x29
   13b6e:	71878513          	addi	x10,x15,1816 # 29718 <_ZL11iris_test_Y+0xc8>
   13b72:	651080ef          	jal	x1,1c9c2 <printf>
   13b76:	45f9                	c.li	x11,30
   13b78:	000297b7          	lui	x15,0x29
   13b7c:	65078513          	addi	x10,x15,1616 # 29650 <_ZL11iris_test_Y>
   13b80:	eb4fc0ef          	jal	x1,10234 <_Z9print_vecPKsm>
   13b84:	a2840593          	addi	x11,x8,-1496
   13b88:	9e840713          	addi	x14,x8,-1560
   13b8c:	46f9                	c.li	x13,30
   13b8e:	000297b7          	lui	x15,0x29
   13b92:	65078613          	addi	x12,x15,1616 # 29650 <_ZL11iris_test_Y>
   13b96:	853a                	c.mv	x10,x14
   13b98:	cbbfe0ef          	jal	x1,12852 <_ZL12vector_equalPsPKsS1_m>
   13b9c:	9e840713          	addi	x14,x8,-1560
   13ba0:	a2640793          	addi	x15,x8,-1498
   13ba4:	4679                	c.li	x12,30
   13ba6:	85ba                	c.mv	x11,x14
   13ba8:	853e                	c.mv	x10,x15
   13baa:	d5ffe0ef          	jal	x1,12908 <_ZL10vector_sumPsPKsm>
   13bae:	a2641783          	lh	x15,-1498(x8)
   13bb2:	0007871b          	addiw	x14,x15,0
   13bb6:	a2641783          	lh	x15,-1498(x8)
   13bba:	d007f753          	fcvt.s.w	f14,x15
   13bbe:	000297b7          	lui	x15,0x29
   13bc2:	7587a787          	flw	f15,1880(x15) # 29758 <_ZL11iris_test_Y+0x108>
   13bc6:	18f777d3          	fdiv.s	f15,f14,f15
   13bca:	42078753          	fcvt.d.s	f14,f15
   13bce:	000297b7          	lui	x15,0x29
   13bd2:	7607b787          	fld	f15,1888(x15) # 29760 <_ZL11iris_test_Y+0x110>
   13bd6:	12f777d3          	fmul.d	f15,f14,f15
   13bda:	e20786d3          	fmv.x.d	x13,f15
   13bde:	4679                	c.li	x12,30
   13be0:	85ba                	c.mv	x11,x14
   13be2:	000297b7          	lui	x15,0x29
   13be6:	73078513          	addi	x10,x15,1840 # 29730 <_ZL11iris_test_Y+0xe0>
   13bea:	5d9080ef          	jal	x1,1c9c2 <printf>
   13bee:	1e00000b          	0x1e00000b
   13bf2:	4781                	c.li	x15,0
   13bf4:	853e                	c.mv	x10,x15
   13bf6:	61813083          	ld	x1,1560(x2)
   13bfa:	61013403          	ld	x8,1552(x2)
   13bfe:	62010113          	addi	x2,x2,1568
   13c02:	8082                	c.jr	x1

0000000000013c04 <_ZSt4sqrtf>:
   13c04:	1101                	c.addi	x2,-32
   13c06:	ec06                	c.sdsp	x1,24(x2)
   13c08:	e822                	c.sdsp	x8,16(x2)
   13c0a:	1000                	c.addi4spn	x8,x2,32
   13c0c:	fea42627          	fsw	f10,-20(x8)
   13c10:	fec42507          	flw	f10,-20(x8)
   13c14:	0c2050ef          	jal	x1,18cd6 <sqrtf>
   13c18:	20a507d3          	fsgnj.s	f15,f10,f10
   13c1c:	20f78553          	fsgnj.s	f10,f15,f15
   13c20:	60e2                	c.ldsp	x1,24(x2)
   13c22:	6442                	c.ldsp	x8,16(x2)
   13c24:	6105                	c.addi16sp	x2,32
   13c26:	8082                	c.jr	x1

0000000000013c28 <_ZSt3expIsEN9__gnu_cxx11__enable_ifIXsrSt12__is_integerIT_E7__valueEdE6__typeES3_>:
   13c28:	1101                	c.addi	x2,-32
   13c2a:	ec06                	c.sdsp	x1,24(x2)
   13c2c:	e822                	c.sdsp	x8,16(x2)
   13c2e:	1000                	c.addi4spn	x8,x2,32
   13c30:	87aa                	c.mv	x15,x10
   13c32:	fef41723          	sh	x15,-18(x8)
   13c36:	fee41783          	lh	x15,-18(x8)
   13c3a:	d20787d3          	fcvt.d.w	f15,x15
   13c3e:	22f78553          	fsgnj.d	f10,f15,f15
   13c42:	028050ef          	jal	x1,18c6a <exp>
   13c46:	22a507d3          	fsgnj.d	f15,f10,f10
   13c4a:	22f78553          	fsgnj.d	f10,f15,f15
   13c4e:	60e2                	c.ldsp	x1,24(x2)
   13c50:	6442                	c.ldsp	x8,16(x2)
   13c52:	6105                	c.addi16sp	x2,32
   13c54:	8082                	c.jr	x1

0000000000013c56 <_ZL23__gxx_exception_cleanup19_Unwind_Reason_CodeP17_Unwind_Exception>:
   13c56:	1101                	c.addi	x2,-32
   13c58:	ec06                	c.sdsp	x1,24(x2)
   13c5a:	4785                	c.li	x15,1
   13c5c:	00a7f663          	bgeu	x15,x10,13c68 <_ZL23__gxx_exception_cleanup19_Unwind_Reason_CodeP17_Unwind_Exception+0x12>
   13c60:	fc85b503          	ld	x10,-56(x11)
   13c64:	432000ef          	jal	x1,14096 <_ZN10__cxxabiv111__terminateEPFvvE>
   13c68:	577d                	c.li	x14,-1
   13c6a:	fa058693          	addi	x13,x11,-96
   13c6e:	0f50000f          	fence	iorw,ow
   13c72:	04e6a7af          	amoadd.w.aq	x15,x14,(x13)
   13c76:	37fd                	c.addiw	x15,-1
   13c78:	ef81                	c.bnez	x15,13c90 <_ZL23__gxx_exception_cleanup19_Unwind_Reason_CodeP17_Unwind_Exception+0x3a>
   13c7a:	fb85b783          	ld	x15,-72(x11)
   13c7e:	02058513          	addi	x10,x11,32
   13c82:	c781                	c.beqz	x15,13c8a <_ZL23__gxx_exception_cleanup19_Unwind_Reason_CodeP17_Unwind_Exception+0x34>
   13c84:	e42a                	c.sdsp	x10,8(x2)
   13c86:	9782                	c.jalr	x15
   13c88:	6522                	c.ldsp	x10,8(x2)
   13c8a:	60e2                	c.ldsp	x1,24(x2)
   13c8c:	6105                	c.addi16sp	x2,32
   13c8e:	a441                	c.j	13f0e <__cxa_free_exception>
   13c90:	60e2                	c.ldsp	x1,24(x2)
   13c92:	6105                	c.addi16sp	x2,32
   13c94:	8082                	c.jr	x1

0000000000013c96 <__cxa_init_primary_exception>:
   13c96:	1141                	c.addi	x2,-16
   13c98:	e406                	c.sdsp	x1,8(x2)
   13c9a:	e022                	c.sdsp	x8,0(x2)
   13c9c:	f8b53823          	sd	x11,-112(x10)
   13ca0:	f8c53c23          	sd	x12,-104(x10)
   13ca4:	f8052023          	sw	x0,-128(x10)
   13ca8:	842a                	c.mv	x8,x10
   13caa:	44a000ef          	jal	x1,140f4 <_ZSt14get_unexpectedv>
   13cae:	faa43023          	sd	x10,-96(x8)
   13cb2:	40c000ef          	jal	x1,140be <_ZSt13get_terminatev>
   13cb6:	5601b783          	ld	x15,1376(x3) # 304d0 <__SDATA_BEGIN__>
   13cba:	faa43423          	sd	x10,-88(x8)
   13cbe:	60a2                	c.ldsp	x1,8(x2)
   13cc0:	fef43023          	sd	x15,-32(x8)
   13cc4:	67d1                	c.lui	x15,0x14
   13cc6:	c5678793          	addi	x15,x15,-938 # 13c56 <_ZL23__gxx_exception_cleanup19_Unwind_Reason_CodeP17_Unwind_Exception>
   13cca:	fef43423          	sd	x15,-24(x8)
   13cce:	f8040513          	addi	x10,x8,-128
   13cd2:	6402                	c.ldsp	x8,0(x2)
   13cd4:	0141                	c.addi	x2,16
   13cd6:	8082                	c.jr	x1

0000000000013cd8 <__cxa_throw>:
   13cd8:	1101                	c.addi	x2,-32
   13cda:	ec06                	c.sdsp	x1,24(x2)
   13cdc:	e822                	c.sdsp	x8,16(x2)
   13cde:	e42e                	c.sdsp	x11,8(x2)
   13ce0:	842a                	c.mv	x8,x10
   13ce2:	e032                	c.sdsp	x12,0(x2)
   13ce4:	3ac000ef          	jal	x1,14090 <__cxa_get_globals>
   13ce8:	451c                	c.lw	x15,8(x10)
   13cea:	6602                	c.ldsp	x12,0(x2)
   13cec:	65a2                	c.ldsp	x11,8(x2)
   13cee:	2785                	c.addiw	x15,1
   13cf0:	c51c                	c.sw	x15,8(x10)
   13cf2:	8522                	c.mv	x10,x8
   13cf4:	fa3ff0ef          	jal	x1,13c96 <__cxa_init_primary_exception>
   13cf8:	4785                	c.li	x15,1
   13cfa:	06050413          	addi	x8,x10,96
   13cfe:	c11c                	c.sw	x15,0(x10)
   13d00:	8522                	c.mv	x10,x8
   13d02:	05d060ef          	jal	x1,1a55e <_Unwind_RaiseException>
   13d06:	8522                	c.mv	x10,x8
   13d08:	276000ef          	jal	x1,13f7e <__cxa_begin_catch>
   13d0c:	3bc000ef          	jal	x1,140c8 <_ZSt9terminatev>

0000000000013d10 <__cxa_rethrow>:
   13d10:	1141                	c.addi	x2,-16
   13d12:	e406                	c.sdsp	x1,8(x2)
   13d14:	e022                	c.sdsp	x8,0(x2)
   13d16:	37a000ef          	jal	x1,14090 <__cxa_get_globals>
   13d1a:	4518                	c.lw	x14,8(x10)
   13d1c:	611c                	c.ld	x15,0(x10)
   13d1e:	2705                	c.addiw	x14,1
   13d20:	c518                	c.sw	x14,8(x10)
   13d22:	c395                	c.beqz	x15,13d46 <__cxa_rethrow+0x36>
   13d24:	5681b683          	ld	x13,1384(x3) # 304d8 <__SDATA_BEGIN__+0x8>
   13d28:	6bb8                	c.ld	x14,80(x15)
   13d2a:	9736                	c.add	x14,x13
   13d2c:	4685                	c.li	x13,1
   13d2e:	00e6fe63          	bgeu	x13,x14,13d4a <__cxa_rethrow+0x3a>
   13d32:	00053023          	sd	x0,0(x10)
   13d36:	05078413          	addi	x8,x15,80
   13d3a:	8522                	c.mv	x10,x8
   13d3c:	57d060ef          	jal	x1,1aab8 <_Unwind_Resume_or_Rethrow>
   13d40:	8522                	c.mv	x10,x8
   13d42:	23c000ef          	jal	x1,13f7e <__cxa_begin_catch>
   13d46:	382000ef          	jal	x1,140c8 <_ZSt9terminatev>
   13d4a:	5798                	c.lw	x14,40(x15)
   13d4c:	40e0073b          	subw	x14,x0,x14
   13d50:	d798                	c.sw	x14,40(x15)
   13d52:	b7d5                	c.j	13d36 <__cxa_rethrow+0x26>

0000000000013d54 <_Znam>:
   13d54:	ae5d                	c.j	1410a <_Znwm>

0000000000013d56 <_ZNKSt20bad_array_new_length4whatEv>:
   13d56:	00029537          	lui	x10,0x29
   13d5a:	76850513          	addi	x10,x10,1896 # 29768 <_ZL11iris_test_Y+0x118>
   13d5e:	8082                	c.jr	x1

0000000000013d60 <_ZNSt20bad_array_new_lengthD1Ev>:
   13d60:	000297b7          	lui	x15,0x29
   13d64:	7d078793          	addi	x15,x15,2000 # 297d0 <_ZTVSt20bad_array_new_length+0x10>
   13d68:	e11c                	c.sd	x15,0(x10)
   13d6a:	6c00006f          	jal	x0,1442a <_ZNSt9bad_allocD1Ev>

0000000000013d6e <_ZNSt20bad_array_new_lengthD0Ev>:
   13d6e:	1141                	c.addi	x2,-16
   13d70:	e022                	c.sdsp	x8,0(x2)
   13d72:	e406                	c.sdsp	x1,8(x2)
   13d74:	842a                	c.mv	x8,x10
   13d76:	febff0ef          	jal	x1,13d60 <_ZNSt20bad_array_new_lengthD1Ev>
   13d7a:	8522                	c.mv	x10,x8
   13d7c:	6402                	c.ldsp	x8,0(x2)
   13d7e:	60a2                	c.ldsp	x1,8(x2)
   13d80:	45a1                	c.li	x11,8
   13d82:	0141                	c.addi	x2,16
   13d84:	a8b9                	c.j	13de2 <_ZdlPvm>

0000000000013d86 <_ZNKSt8bad_cast4whatEv>:
   13d86:	00029537          	lui	x10,0x29
   13d8a:	7e850513          	addi	x10,x10,2024 # 297e8 <_ZTVSt20bad_array_new_length+0x28>
   13d8e:	8082                	c.jr	x1

0000000000013d90 <_ZNSt8bad_castD1Ev>:
   13d90:	0002a7b7          	lui	x15,0x2a
   13d94:	83078793          	addi	x15,x15,-2000 # 29830 <_ZTVSt8bad_cast+0x10>
   13d98:	e11c                	c.sd	x15,0(x10)
   13d9a:	ac6d                	c.j	14054 <_ZNSt9exceptionD1Ev>

0000000000013d9c <_ZNSt8bad_castD0Ev>:
   13d9c:	1141                	c.addi	x2,-16
   13d9e:	e022                	c.sdsp	x8,0(x2)
   13da0:	e406                	c.sdsp	x1,8(x2)
   13da2:	842a                	c.mv	x8,x10
   13da4:	fedff0ef          	jal	x1,13d90 <_ZNSt8bad_castD1Ev>
   13da8:	8522                	c.mv	x10,x8
   13daa:	6402                	c.ldsp	x8,0(x2)
   13dac:	60a2                	c.ldsp	x1,8(x2)
   13dae:	45a1                	c.li	x11,8
   13db0:	0141                	c.addi	x2,16
   13db2:	a805                	c.j	13de2 <_ZdlPvm>

0000000000013db4 <_ZNKSt10bad_typeid4whatEv>:
   13db4:	0002a537          	lui	x10,0x2a
   13db8:	84850513          	addi	x10,x10,-1976 # 29848 <_ZTVSt8bad_cast+0x28>
   13dbc:	8082                	c.jr	x1

0000000000013dbe <_ZNSt10bad_typeidD1Ev>:
   13dbe:	0002a7b7          	lui	x15,0x2a
   13dc2:	89078793          	addi	x15,x15,-1904 # 29890 <_ZTVSt10bad_typeid+0x10>
   13dc6:	e11c                	c.sd	x15,0(x10)
   13dc8:	a471                	c.j	14054 <_ZNSt9exceptionD1Ev>

0000000000013dca <_ZNSt10bad_typeidD0Ev>:
   13dca:	1141                	c.addi	x2,-16
   13dcc:	e022                	c.sdsp	x8,0(x2)
   13dce:	e406                	c.sdsp	x1,8(x2)
   13dd0:	842a                	c.mv	x8,x10
   13dd2:	fedff0ef          	jal	x1,13dbe <_ZNSt10bad_typeidD1Ev>
   13dd6:	8522                	c.mv	x10,x8
   13dd8:	6402                	c.ldsp	x8,0(x2)
   13dda:	60a2                	c.ldsp	x1,8(x2)
   13ddc:	45a1                	c.li	x11,8
   13dde:	0141                	c.addi	x2,16
   13de0:	a009                	c.j	13de2 <_ZdlPvm>

0000000000013de2 <_ZdlPvm>:
   13de2:	7800406f          	jal	x0,18562 <_ZdlPv>

0000000000013de6 <_ZN12_GLOBAL__N_14pool4freeEPv.constprop.0>:
   13de6:	76018893          	addi	x17,x3,1888 # 306d0 <_ZN12_GLOBAL__N_114emergency_poolE>
   13dea:	0088b783          	ld	x15,8(x17)
   13dee:	ff053703          	ld	x14,-16(x10)
   13df2:	ff050613          	addi	x12,x10,-16
   13df6:	76018593          	addi	x11,x3,1888 # 306d0 <_ZN12_GLOBAL__N_114emergency_poolE>
   13dfa:	c789                	c.beqz	x15,13e04 <_ZN12_GLOBAL__N_14pool4freeEPv.constprop.0+0x1e>
   13dfc:	00e606b3          	add	x13,x12,x14
   13e00:	00f6f663          	bgeu	x13,x15,13e0c <_ZN12_GLOBAL__N_14pool4freeEPv.constprop.0+0x26>
   13e04:	fef53c23          	sd	x15,-8(x10)
   13e08:	e590                	c.sd	x12,8(x11)
   13e0a:	8082                	c.jr	x1
   13e0c:	678c                	c.ld	x11,8(x15)
   13e0e:	00888813          	addi	x16,x17,8
   13e12:	00d79e63          	bne	x15,x13,13e2e <_ZN12_GLOBAL__N_14pool4freeEPv.constprop.0+0x48>
   13e16:	639c                	c.ld	x15,0(x15)
   13e18:	feb53c23          	sd	x11,-8(x10)
   13e1c:	97ba                	c.add	x15,x14
   13e1e:	fef53823          	sd	x15,-16(x10)
   13e22:	00c8b423          	sd	x12,8(x17)
   13e26:	8082                	c.jr	x1
   13e28:	00878813          	addi	x16,x15,8
   13e2c:	87ae                	c.mv	x15,x11
   13e2e:	678c                	c.ld	x11,8(x15)
   13e30:	c989                	c.beqz	x11,13e42 <_ZN12_GLOBAL__N_14pool4freeEPv.constprop.0+0x5c>
   13e32:	feb6ebe3          	bltu	x13,x11,13e28 <_ZN12_GLOBAL__N_14pool4freeEPv.constprop.0+0x42>
   13e36:	00b69663          	bne	x13,x11,13e42 <_ZN12_GLOBAL__N_14pool4freeEPv.constprop.0+0x5c>
   13e3a:	628c                	c.ld	x11,0(x13)
   13e3c:	6694                	c.ld	x13,8(x13)
   13e3e:	972e                	c.add	x14,x11
   13e40:	e794                	c.sd	x13,8(x15)
   13e42:	00083783          	ld	x15,0(x16)
   13e46:	6394                	c.ld	x13,0(x15)
   13e48:	00d785b3          	add	x11,x15,x13
   13e4c:	00b61563          	bne	x12,x11,13e56 <_ZN12_GLOBAL__N_14pool4freeEPv.constprop.0+0x70>
   13e50:	96ba                	c.add	x13,x14
   13e52:	e394                	c.sd	x13,0(x15)
   13e54:	8082                	c.jr	x1
   13e56:	679c                	c.ld	x15,8(x15)
   13e58:	fee53823          	sd	x14,-16(x10)
   13e5c:	fef53c23          	sd	x15,-8(x10)
   13e60:	00083783          	ld	x15,0(x16)
   13e64:	e790                	c.sd	x12,8(x15)
   13e66:	8082                	c.jr	x1

0000000000013e68 <_ZN12_GLOBAL__N_14pool8allocateEm.constprop.0>:
   13e68:	0541                	c.addi	x10,16
   13e6a:	47c1                	c.li	x15,16
   13e6c:	00f57363          	bgeu	x10,x15,13e72 <_ZN12_GLOBAL__N_14pool8allocateEm.constprop.0+0xa>
   13e70:	4541                	c.li	x10,16
   13e72:	053d                	c.addi	x10,15
   13e74:	76018713          	addi	x14,x3,1888 # 306d0 <_ZN12_GLOBAL__N_114emergency_poolE>
   13e78:	ff057793          	andi	x15,x10,-16
   13e7c:	0721                	c.addi	x14,8
   13e7e:	6308                	c.ld	x10,0(x14)
   13e80:	c915                	c.beqz	x10,13eb4 <_ZN12_GLOBAL__N_14pool8allocateEm.constprop.0+0x4c>
   13e82:	6114                	c.ld	x13,0(x10)
   13e84:	6510                	c.ld	x12,8(x10)
   13e86:	00f6ea63          	bltu	x13,x15,13e9a <_ZN12_GLOBAL__N_14pool8allocateEm.constprop.0+0x32>
   13e8a:	40f685b3          	sub	x11,x13,x15
   13e8e:	483d                	c.li	x16,15
   13e90:	00b86963          	bltu	x16,x11,13ea2 <_ZN12_GLOBAL__N_14pool8allocateEm.constprop.0+0x3a>
   13e94:	e114                	c.sd	x13,0(x10)
   13e96:	86b2                	c.mv	x13,x12
   13e98:	a819                	c.j	13eae <_ZN12_GLOBAL__N_14pool8allocateEm.constprop.0+0x46>
   13e9a:	00850713          	addi	x14,x10,8
   13e9e:	8532                	c.mv	x10,x12
   13ea0:	b7c5                	c.j	13e80 <_ZN12_GLOBAL__N_14pool8allocateEm.constprop.0+0x18>
   13ea2:	00f506b3          	add	x13,x10,x15
   13ea6:	e690                	c.sd	x12,8(x13)
   13ea8:	6308                	c.ld	x10,0(x14)
   13eaa:	e28c                	c.sd	x11,0(x13)
   13eac:	e11c                	c.sd	x15,0(x10)
   13eae:	e314                	c.sd	x13,0(x14)
   13eb0:	0541                	c.addi	x10,16
   13eb2:	8082                	c.jr	x1
   13eb4:	8082                	c.jr	x1

0000000000013eb6 <_ZN9__gnu_cxx9__freeresEv>:
   13eb6:	1141                	c.addi	x2,-16
   13eb8:	e022                	c.sdsp	x8,0(x2)
   13eba:	76018413          	addi	x8,x3,1888 # 306d0 <_ZN12_GLOBAL__N_114emergency_poolE>
   13ebe:	6808                	c.ld	x10,16(x8)
   13ec0:	e406                	c.sdsp	x1,8(x2)
   13ec2:	c509                	c.beqz	x10,13ecc <_ZN9__gnu_cxx9__freeresEv+0x16>
   13ec4:	172080ef          	jal	x1,1c036 <free>
   13ec8:	00043823          	sd	x0,16(x8)
   13ecc:	60a2                	c.ldsp	x1,8(x2)
   13ece:	6402                	c.ldsp	x8,0(x2)
   13ed0:	0141                	c.addi	x2,16
   13ed2:	8082                	c.jr	x1

0000000000013ed4 <__cxa_allocate_exception>:
   13ed4:	1141                	c.addi	x2,-16
   13ed6:	e022                	c.sdsp	x8,0(x2)
   13ed8:	08050413          	addi	x8,x10,128
   13edc:	8522                	c.mv	x10,x8
   13ede:	e406                	c.sdsp	x1,8(x2)
   13ee0:	14e080ef          	jal	x1,1c02e <malloc>
   13ee4:	87aa                	c.mv	x15,x10
   13ee6:	e901                	c.bnez	x10,13ef6 <__cxa_allocate_exception+0x22>
   13ee8:	8522                	c.mv	x10,x8
   13eea:	f7fff0ef          	jal	x1,13e68 <_ZN12_GLOBAL__N_14pool8allocateEm.constprop.0>
   13eee:	87aa                	c.mv	x15,x10
   13ef0:	e119                	c.bnez	x10,13ef6 <__cxa_allocate_exception+0x22>
   13ef2:	1d6000ef          	jal	x1,140c8 <_ZSt9terminatev>
   13ef6:	08000613          	addi	x12,x0,128
   13efa:	4581                	c.li	x11,0
   13efc:	853e                	c.mv	x10,x15
   13efe:	1f5080ef          	jal	x1,1c8f2 <memset>
   13f02:	60a2                	c.ldsp	x1,8(x2)
   13f04:	6402                	c.ldsp	x8,0(x2)
   13f06:	08050513          	addi	x10,x10,128
   13f0a:	0141                	c.addi	x2,16
   13f0c:	8082                	c.jr	x1

0000000000013f0e <__cxa_free_exception>:
   13f0e:	76018713          	addi	x14,x3,1888 # 306d0 <_ZN12_GLOBAL__N_114emergency_poolE>
   13f12:	6b1c                	c.ld	x15,16(x14)
   13f14:	f8050513          	addi	x10,x10,-128
   13f18:	00a7f763          	bgeu	x15,x10,13f26 <__cxa_free_exception+0x18>
   13f1c:	6f18                	c.ld	x14,24(x14)
   13f1e:	97ba                	c.add	x15,x14
   13f20:	00f57363          	bgeu	x10,x15,13f26 <__cxa_free_exception+0x18>
   13f24:	b5c9                	c.j	13de6 <_ZN12_GLOBAL__N_14pool4freeEPv.constprop.0>
   13f26:	1100806f          	jal	x0,1c036 <free>

0000000000013f2a <__cxa_allocate_dependent_exception>:
   13f2a:	1141                	c.addi	x2,-16
   13f2c:	07000513          	addi	x10,x0,112
   13f30:	e406                	c.sdsp	x1,8(x2)
   13f32:	0fc080ef          	jal	x1,1c02e <malloc>
   13f36:	87aa                	c.mv	x15,x10
   13f38:	e909                	c.bnez	x10,13f4a <__cxa_allocate_dependent_exception+0x20>
   13f3a:	07000513          	addi	x10,x0,112
   13f3e:	f2bff0ef          	jal	x1,13e68 <_ZN12_GLOBAL__N_14pool8allocateEm.constprop.0>
   13f42:	87aa                	c.mv	x15,x10
   13f44:	e119                	c.bnez	x10,13f4a <__cxa_allocate_dependent_exception+0x20>
   13f46:	182000ef          	jal	x1,140c8 <_ZSt9terminatev>
   13f4a:	07000613          	addi	x12,x0,112
   13f4e:	4581                	c.li	x11,0
   13f50:	853e                	c.mv	x10,x15
   13f52:	1a1080ef          	jal	x1,1c8f2 <memset>
   13f56:	60a2                	c.ldsp	x1,8(x2)
   13f58:	0141                	c.addi	x2,16
   13f5a:	8082                	c.jr	x1

0000000000013f5c <__cxa_free_dependent_exception>:
   13f5c:	76018693          	addi	x13,x3,1888 # 306d0 <_ZN12_GLOBAL__N_114emergency_poolE>
   13f60:	6a98                	c.ld	x14,16(x13)
   13f62:	87aa                	c.mv	x15,x10
   13f64:	00a77763          	bgeu	x14,x10,13f72 <__cxa_free_dependent_exception+0x16>
   13f68:	6e94                	c.ld	x13,24(x13)
   13f6a:	9736                	c.add	x14,x13
   13f6c:	00e57363          	bgeu	x10,x14,13f72 <__cxa_free_dependent_exception+0x16>
   13f70:	bd9d                	c.j	13de6 <_ZN12_GLOBAL__N_14pool4freeEPv.constprop.0>
   13f72:	853e                	c.mv	x10,x15
   13f74:	0c20806f          	jal	x0,1c036 <free>

0000000000013f78 <__cxa_get_exception_ptr>:
   13f78:	ff853503          	ld	x10,-8(x10)
   13f7c:	8082                	c.jr	x1

0000000000013f7e <__cxa_begin_catch>:
   13f7e:	1141                	c.addi	x2,-16
   13f80:	e022                	c.sdsp	x8,0(x2)
   13f82:	e406                	c.sdsp	x1,8(x2)
   13f84:	842a                	c.mv	x8,x10
   13f86:	10a000ef          	jal	x1,14090 <__cxa_get_globals>
   13f8a:	5681b603          	ld	x12,1384(x3) # 304d8 <__SDATA_BEGIN__+0x8>
   13f8e:	6018                	c.ld	x14,0(x8)
   13f90:	87aa                	c.mv	x15,x10
   13f92:	fb040693          	addi	x13,x8,-80
   13f96:	9732                	c.add	x14,x12
   13f98:	4605                	c.li	x12,1
   13f9a:	6108                	c.ld	x10,0(x10)
   13f9c:	00e67a63          	bgeu	x12,x14,13fb0 <__cxa_begin_catch+0x32>
   13fa0:	c119                	c.beqz	x10,13fa6 <__cxa_begin_catch+0x28>
   13fa2:	126000ef          	jal	x1,140c8 <_ZSt9terminatev>
   13fa6:	e394                	c.sd	x13,0(x15)
   13fa8:	60a2                	c.ldsp	x1,8(x2)
   13faa:	6402                	c.ldsp	x8,0(x2)
   13fac:	0141                	c.addi	x2,16
   13fae:	8082                	c.jr	x1
   13fb0:	fd842703          	lw	x14,-40(x8)
   13fb4:	02075263          	bge	x14,x0,13fd8 <__cxa_begin_catch+0x5a>
   13fb8:	4605                	c.li	x12,1
   13fba:	40e6073b          	subw	x14,x12,x14
   13fbe:	fce42c23          	sw	x14,-40(x8)
   13fc2:	4798                	c.lw	x14,8(x15)
   13fc4:	377d                	c.addiw	x14,-1
   13fc6:	c798                	c.sw	x14,8(x15)
   13fc8:	00d50563          	beq	x10,x13,13fd2 <__cxa_begin_catch+0x54>
   13fcc:	fca43823          	sd	x10,-48(x8)
   13fd0:	e394                	c.sd	x13,0(x15)
   13fd2:	ff843503          	ld	x10,-8(x8)
   13fd6:	bfc9                	c.j	13fa8 <__cxa_begin_catch+0x2a>
